
/home/ubuntu/Desktop/riscv-compliance-master/work/rv32imc/C-J.elf：     文件格式 elf32-littleriscv


Disassembly of section .text.init:

00000000 <_start>:
   0:	a081                	j	40 <reset_vector>
   2:	0001                	nop

00000004 <trap_vector>:
   4:	34202f73          	csrr	t5,mcause
   8:	4fa1                	li	t6,8
   a:	03ff0663          	beq	t5,t6,36 <write_tohost>
   e:	4fa5                	li	t6,9
  10:	03ff0363          	beq	t5,t6,36 <write_tohost>
  14:	4fad                	li	t6,11
  16:	03ff0063          	beq	t5,t6,36 <write_tohost>
  1a:	00000f17          	auipc	t5,0x0
  1e:	fe6f0f13          	addi	t5,t5,-26 # 0 <_start>
  22:	000f0363          	beqz	t5,28 <trap_vector+0x24>
  26:	8f02                	jr	t5
  28:	34202f73          	csrr	t5,mcause
  2c:	000f5363          	bgez	t5,32 <handle_exception>
  30:	a009                	j	32 <handle_exception>

00000032 <handle_exception>:
  32:	5391e193          	ori	gp,gp,1337

00000036 <write_tohost>:
  36:	00001f17          	auipc	t5,0x1
  3a:	fc3f2523          	sw	gp,-54(t5) # 1000 <tohost>
  3e:	bfe5                	j	36 <write_tohost>

00000040 <reset_vector>:
  40:	f1402573          	csrr	a0,mhartid
  44:	e101                	bnez	a0,44 <reset_vector+0x4>
  46:	00000297          	auipc	t0,0x0
  4a:	01228293          	addi	t0,t0,18 # 58 <reset_vector+0x18>
  4e:	30529073          	csrw	mtvec,t0
  52:	18005073          	csrwi	satp,0
  56:	0001                	nop
  58:	00000297          	auipc	t0,0x0
  5c:	01828293          	addi	t0,t0,24 # 70 <reset_vector+0x30>
  60:	30529073          	csrw	mtvec,t0
  64:	52fd                	li	t0,-1
  66:	3b029073          	csrw	pmpaddr0,t0
  6a:	42fd                	li	t0,31
  6c:	3a029073          	csrw	pmpcfg0,t0
  70:	00000297          	auipc	t0,0x0
  74:	01828293          	addi	t0,t0,24 # 88 <reset_vector+0x48>
  78:	30529073          	csrw	mtvec,t0
  7c:	30205073          	csrwi	medeleg,0
  80:	30305073          	csrwi	mideleg,0
  84:	30405073          	csrwi	mie,0
  88:	4181                	li	gp,0
  8a:	00000297          	auipc	t0,0x0
  8e:	f7a28293          	addi	t0,t0,-134 # 4 <trap_vector>
  92:	30529073          	csrw	mtvec,t0
  96:	4505                	li	a0,1
  98:	057e                	slli	a0,a0,0x1f
  9a:	00054763          	bltz	a0,a8 <reset_vector+0x68>
  9e:	0ff0000f          	fence
  a2:	4185                	li	gp,1
  a4:	00000073          	ecall
  a8:	00000297          	auipc	t0,0x0
  ac:	f5828293          	addi	t0,t0,-168 # 0 <_start>
  b0:	00028e63          	beqz	t0,cc <reset_vector+0x8c>
  b4:	10529073          	csrw	stvec,t0
  b8:	0000b2b7          	lui	t0,0xb
  bc:	10928293          	addi	t0,t0,265 # b109 <_end+0x8f05>
  c0:	30229073          	csrw	medeleg,t0
  c4:	30202373          	csrr	t1,medeleg
  c8:	f66295e3          	bne	t0,t1,32 <handle_exception>
  cc:	30005073          	csrwi	mstatus,0
  d0:	00002537          	lui	a0,0x2
  d4:	80050513          	addi	a0,a0,-2048 # 1800 <fromhost+0x700>
  d8:	30052073          	csrs	mstatus,a0
  dc:	00000297          	auipc	t0,0x0
  e0:	01428293          	addi	t0,t0,20 # f0 <begin_testcode>
  e4:	34129073          	csrw	mepc,t0
  e8:	f1402573          	csrr	a0,mhartid
  ec:	30200073          	mret

000000f0 <begin_testcode>:
  f0:	00002117          	auipc	sp,0x2
  f4:	f1010113          	addi	sp,sp,-240 # 2000 <begin_signature>
  f8:	4581                	li	a1,0
  fa:	a029                	j	104 <begin_testcode+0x14>
  fc:	000125b7          	lui	a1,0x12
 100:	3ab58593          	addi	a1,a1,939 # 123ab <_end+0x101a7>
 104:	c02e                	sw	a1,0(sp)
 106:	00002117          	auipc	sp,0x2
 10a:	efe10113          	addi	sp,sp,-258 # 2004 <test_2_res>
 10e:	4605                	li	a2,1
 110:	a029                	j	11a <begin_testcode+0x2a>
 112:	00012637          	lui	a2,0x12
 116:	3ab60613          	addi	a2,a2,939 # 123ab <_end+0x101a7>
 11a:	c032                	sw	a2,0(sp)
 11c:	00002117          	auipc	sp,0x2
 120:	eec10113          	addi	sp,sp,-276 # 2008 <test_3_res>
 124:	56fd                	li	a3,-1
 126:	a029                	j	130 <begin_testcode+0x40>
 128:	000126b7          	lui	a3,0x12
 12c:	3ab68693          	addi	a3,a3,939 # 123ab <_end+0x101a7>
 130:	c036                	sw	a3,0(sp)
 132:	00002117          	auipc	sp,0x2
 136:	eda10113          	addi	sp,sp,-294 # 200c <test_4_res>
 13a:	00008737          	lui	a4,0x8
 13e:	fff70713          	addi	a4,a4,-1 # 7fff <_end+0x5dfb>
 142:	a029                	j	14c <begin_testcode+0x5c>
 144:	00012737          	lui	a4,0x12
 148:	3ab70713          	addi	a4,a4,939 # 123ab <_end+0x101a7>
 14c:	c03a                	sw	a4,0(sp)
 14e:	00002117          	auipc	sp,0x2
 152:	ec210113          	addi	sp,sp,-318 # 2010 <test_5_res>
 156:	67a1                	lui	a5,0x8
 158:	a029                	j	162 <begin_testcode+0x72>
 15a:	000127b7          	lui	a5,0x12
 15e:	3ab78793          	addi	a5,a5,939 # 123ab <_end+0x101a7>
 162:	c03e                	sw	a5,0(sp)
 164:	0ff0000f          	fence
 168:	4185                	li	gp,1
 16a:	00000073          	ecall

0000016e <end_testcode>:
	...

Disassembly of section .tohost:

00001000 <tohost>:
	...

00001100 <fromhost>:
	...
