
/home/ubuntu/Downloads/NF5_test/riscv-compliance-master/work/rv32ud/fmin.elf：     文件格式 elf32-littleriscv


Disassembly of section .text.init:

80000000 <_start>:
80000000:	04c0006f          	j	8000004c <reset_vector>

80000004 <trap_vector>:
80000004:	34202f73          	csrr	t5,mcause
80000008:	00800f93          	li	t6,8
8000000c:	03ff0a63          	beq	t5,t6,80000040 <write_tohost>
80000010:	00900f93          	li	t6,9
80000014:	03ff0663          	beq	t5,t6,80000040 <write_tohost>
80000018:	00b00f93          	li	t6,11
8000001c:	03ff0263          	beq	t5,t6,80000040 <write_tohost>
80000020:	80000f17          	auipc	t5,0x80000
80000024:	fe0f0f13          	addi	t5,t5,-32 # 0 <_start-0x80000000>
80000028:	000f0463          	beqz	t5,80000030 <trap_vector+0x2c>
8000002c:	000f0067          	jr	t5
80000030:	34202f73          	csrr	t5,mcause
80000034:	000f5463          	bgez	t5,8000003c <handle_exception>
80000038:	0040006f          	j	8000003c <handle_exception>

8000003c <handle_exception>:
8000003c:	5391e193          	ori	gp,gp,1337

80000040 <write_tohost>:
80000040:	00001f17          	auipc	t5,0x1
80000044:	fc3f2023          	sw	gp,-64(t5) # 80001000 <tohost>
80000048:	ff9ff06f          	j	80000040 <write_tohost>

8000004c <reset_vector>:
8000004c:	f1402573          	csrr	a0,mhartid
80000050:	00051063          	bnez	a0,80000050 <reset_vector+0x4>
80000054:	00000297          	auipc	t0,0x0
80000058:	01028293          	addi	t0,t0,16 # 80000064 <reset_vector+0x18>
8000005c:	30529073          	csrw	mtvec,t0
80000060:	18005073          	csrwi	satp,0
80000064:	00000297          	auipc	t0,0x0
80000068:	01c28293          	addi	t0,t0,28 # 80000080 <reset_vector+0x34>
8000006c:	30529073          	csrw	mtvec,t0
80000070:	fff00293          	li	t0,-1
80000074:	3b029073          	csrw	pmpaddr0,t0
80000078:	01f00293          	li	t0,31
8000007c:	3a029073          	csrw	pmpcfg0,t0
80000080:	00000297          	auipc	t0,0x0
80000084:	01828293          	addi	t0,t0,24 # 80000098 <reset_vector+0x4c>
80000088:	30529073          	csrw	mtvec,t0
8000008c:	30205073          	csrwi	medeleg,0
80000090:	30305073          	csrwi	mideleg,0
80000094:	30405073          	csrwi	mie,0
80000098:	00000193          	li	gp,0
8000009c:	00000297          	auipc	t0,0x0
800000a0:	f6828293          	addi	t0,t0,-152 # 80000004 <trap_vector>
800000a4:	30529073          	csrw	mtvec,t0
800000a8:	00100513          	li	a0,1
800000ac:	01f51513          	slli	a0,a0,0x1f
800000b0:	00054e63          	bltz	a0,800000cc <reset_vector+0x80>
800000b4:	0ff0000f          	fence
800000b8:	00100193          	li	gp,1
800000bc:	00002e17          	auipc	t3,0x2
800000c0:	184e0e13          	addi	t3,t3,388 # 80002240 <begin_signature>
800000c4:	003e2023          	sw	gp,0(t3)
800000c8:	00000073          	ecall
800000cc:	80000297          	auipc	t0,0x80000
800000d0:	f3428293          	addi	t0,t0,-204 # 0 <_start-0x80000000>
800000d4:	00028e63          	beqz	t0,800000f0 <reset_vector+0xa4>
800000d8:	10529073          	csrw	stvec,t0
800000dc:	0000b2b7          	lui	t0,0xb
800000e0:	10928293          	addi	t0,t0,265 # b109 <_start-0x7fff4ef7>
800000e4:	30229073          	csrw	medeleg,t0
800000e8:	30202373          	csrr	t1,medeleg
800000ec:	f46298e3          	bne	t0,t1,8000003c <handle_exception>
800000f0:	30005073          	csrwi	mstatus,0
800000f4:	00002537          	lui	a0,0x2
800000f8:	30052073          	csrs	mstatus,a0
800000fc:	00305073          	csrwi	fcsr,0
80000100:	00000297          	auipc	t0,0x0
80000104:	01428293          	addi	t0,t0,20 # 80000114 <begin_testcode>
80000108:	34129073          	csrw	mepc,t0
8000010c:	f1402573          	csrr	a0,mhartid
80000110:	30200073          	mret

80000114 <begin_testcode>:
80000114:	00200193          	li	gp,2
80000118:	00002e17          	auipc	t3,0x2
8000011c:	128e0e13          	addi	t3,t3,296 # 80002240 <begin_signature>
80000120:	003e2423          	sw	gp,8(t3)
80000124:	00002517          	auipc	a0,0x2
80000128:	edc50513          	addi	a0,a0,-292 # 80002000 <test_2_data>
8000012c:	00053007          	fld	ft0,0(a0)
80000130:	00853087          	fld	ft1,8(a0)
80000134:	01053107          	fld	ft2,16(a0)
80000138:	01852683          	lw	a3,24(a0)
8000013c:	01c52303          	lw	t1,28(a0)
80000140:	2a1001d3          	fmin.d	ft3,ft0,ft1
80000144:	00353027          	fsd	ft3,0(a0)
80000148:	00452383          	lw	t2,4(a0)
8000014c:	00052503          	lw	a0,0(a0)
80000150:	001015f3          	fsflags	a1,zero
80000154:	00000613          	li	a2,0
80000158:	56d51863          	bne	a0,a3,800006c8 <fail>
8000015c:	56731663          	bne	t1,t2,800006c8 <fail>
80000160:	56c59463          	bne	a1,a2,800006c8 <fail>

80000164 <test_3>:
80000164:	00300193          	li	gp,3
80000168:	00002e17          	auipc	t3,0x2
8000016c:	0d8e0e13          	addi	t3,t3,216 # 80002240 <begin_signature>
80000170:	003e2623          	sw	gp,12(t3)
80000174:	00002517          	auipc	a0,0x2
80000178:	eac50513          	addi	a0,a0,-340 # 80002020 <test_3_data>
8000017c:	00053007          	fld	ft0,0(a0)
80000180:	00853087          	fld	ft1,8(a0)
80000184:	01053107          	fld	ft2,16(a0)
80000188:	01852683          	lw	a3,24(a0)
8000018c:	01c52303          	lw	t1,28(a0)
80000190:	2a1001d3          	fmin.d	ft3,ft0,ft1
80000194:	00353027          	fsd	ft3,0(a0)
80000198:	00452383          	lw	t2,4(a0)
8000019c:	00052503          	lw	a0,0(a0)
800001a0:	001015f3          	fsflags	a1,zero
800001a4:	00000613          	li	a2,0
800001a8:	52d51063          	bne	a0,a3,800006c8 <fail>
800001ac:	50731e63          	bne	t1,t2,800006c8 <fail>
800001b0:	50c59c63          	bne	a1,a2,800006c8 <fail>

800001b4 <test_4>:
800001b4:	00400193          	li	gp,4
800001b8:	00002e17          	auipc	t3,0x2
800001bc:	088e0e13          	addi	t3,t3,136 # 80002240 <begin_signature>
800001c0:	003e2823          	sw	gp,16(t3)
800001c4:	00002517          	auipc	a0,0x2
800001c8:	e7c50513          	addi	a0,a0,-388 # 80002040 <test_4_data>
800001cc:	00053007          	fld	ft0,0(a0)
800001d0:	00853087          	fld	ft1,8(a0)
800001d4:	01053107          	fld	ft2,16(a0)
800001d8:	01852683          	lw	a3,24(a0)
800001dc:	01c52303          	lw	t1,28(a0)
800001e0:	2a1001d3          	fmin.d	ft3,ft0,ft1
800001e4:	00353027          	fsd	ft3,0(a0)
800001e8:	00452383          	lw	t2,4(a0)
800001ec:	00052503          	lw	a0,0(a0)
800001f0:	001015f3          	fsflags	a1,zero
800001f4:	00000613          	li	a2,0
800001f8:	4cd51863          	bne	a0,a3,800006c8 <fail>
800001fc:	4c731663          	bne	t1,t2,800006c8 <fail>
80000200:	4cc59463          	bne	a1,a2,800006c8 <fail>

80000204 <test_5>:
80000204:	00500193          	li	gp,5
80000208:	00002e17          	auipc	t3,0x2
8000020c:	038e0e13          	addi	t3,t3,56 # 80002240 <begin_signature>
80000210:	003e2a23          	sw	gp,20(t3)
80000214:	00002517          	auipc	a0,0x2
80000218:	e4c50513          	addi	a0,a0,-436 # 80002060 <test_5_data>
8000021c:	00053007          	fld	ft0,0(a0)
80000220:	00853087          	fld	ft1,8(a0)
80000224:	01053107          	fld	ft2,16(a0)
80000228:	01852683          	lw	a3,24(a0)
8000022c:	01c52303          	lw	t1,28(a0)
80000230:	2a1001d3          	fmin.d	ft3,ft0,ft1
80000234:	00353027          	fsd	ft3,0(a0)
80000238:	00452383          	lw	t2,4(a0)
8000023c:	00052503          	lw	a0,0(a0)
80000240:	001015f3          	fsflags	a1,zero
80000244:	00000613          	li	a2,0
80000248:	48d51063          	bne	a0,a3,800006c8 <fail>
8000024c:	46731e63          	bne	t1,t2,800006c8 <fail>
80000250:	46c59c63          	bne	a1,a2,800006c8 <fail>

80000254 <test_6>:
80000254:	00600193          	li	gp,6
80000258:	00002e17          	auipc	t3,0x2
8000025c:	fe8e0e13          	addi	t3,t3,-24 # 80002240 <begin_signature>
80000260:	003e2c23          	sw	gp,24(t3)
80000264:	00002517          	auipc	a0,0x2
80000268:	e1c50513          	addi	a0,a0,-484 # 80002080 <test_6_data>
8000026c:	00053007          	fld	ft0,0(a0)
80000270:	00853087          	fld	ft1,8(a0)
80000274:	01053107          	fld	ft2,16(a0)
80000278:	01852683          	lw	a3,24(a0)
8000027c:	01c52303          	lw	t1,28(a0)
80000280:	2a1001d3          	fmin.d	ft3,ft0,ft1
80000284:	00353027          	fsd	ft3,0(a0)
80000288:	00452383          	lw	t2,4(a0)
8000028c:	00052503          	lw	a0,0(a0)
80000290:	001015f3          	fsflags	a1,zero
80000294:	00000613          	li	a2,0
80000298:	42d51863          	bne	a0,a3,800006c8 <fail>
8000029c:	42731663          	bne	t1,t2,800006c8 <fail>
800002a0:	42c59463          	bne	a1,a2,800006c8 <fail>

800002a4 <test_7>:
800002a4:	00700193          	li	gp,7
800002a8:	00002e17          	auipc	t3,0x2
800002ac:	f98e0e13          	addi	t3,t3,-104 # 80002240 <begin_signature>
800002b0:	003e2e23          	sw	gp,28(t3)
800002b4:	00002517          	auipc	a0,0x2
800002b8:	dec50513          	addi	a0,a0,-532 # 800020a0 <test_7_data>
800002bc:	00053007          	fld	ft0,0(a0)
800002c0:	00853087          	fld	ft1,8(a0)
800002c4:	01053107          	fld	ft2,16(a0)
800002c8:	01852683          	lw	a3,24(a0)
800002cc:	01c52303          	lw	t1,28(a0)
800002d0:	2a1001d3          	fmin.d	ft3,ft0,ft1
800002d4:	00353027          	fsd	ft3,0(a0)
800002d8:	00452383          	lw	t2,4(a0)
800002dc:	00052503          	lw	a0,0(a0)
800002e0:	001015f3          	fsflags	a1,zero
800002e4:	00000613          	li	a2,0
800002e8:	3ed51063          	bne	a0,a3,800006c8 <fail>
800002ec:	3c731e63          	bne	t1,t2,800006c8 <fail>
800002f0:	3cc59c63          	bne	a1,a2,800006c8 <fail>

800002f4 <test_12>:
800002f4:	00c00193          	li	gp,12
800002f8:	00002e17          	auipc	t3,0x2
800002fc:	f48e0e13          	addi	t3,t3,-184 # 80002240 <begin_signature>
80000300:	023e2823          	sw	gp,48(t3)
80000304:	00002517          	auipc	a0,0x2
80000308:	dbc50513          	addi	a0,a0,-580 # 800020c0 <test_12_data>
8000030c:	00053007          	fld	ft0,0(a0)
80000310:	00853087          	fld	ft1,8(a0)
80000314:	01053107          	fld	ft2,16(a0)
80000318:	01852683          	lw	a3,24(a0)
8000031c:	01c52303          	lw	t1,28(a0)
80000320:	2a1011d3          	fmax.d	ft3,ft0,ft1
80000324:	00353027          	fsd	ft3,0(a0)
80000328:	00452383          	lw	t2,4(a0)
8000032c:	00052503          	lw	a0,0(a0)
80000330:	001015f3          	fsflags	a1,zero
80000334:	00000613          	li	a2,0
80000338:	38d51863          	bne	a0,a3,800006c8 <fail>
8000033c:	38731663          	bne	t1,t2,800006c8 <fail>
80000340:	38c59463          	bne	a1,a2,800006c8 <fail>

80000344 <test_13>:
80000344:	00d00193          	li	gp,13
80000348:	00002e17          	auipc	t3,0x2
8000034c:	ef8e0e13          	addi	t3,t3,-264 # 80002240 <begin_signature>
80000350:	023e2a23          	sw	gp,52(t3)
80000354:	00002517          	auipc	a0,0x2
80000358:	d8c50513          	addi	a0,a0,-628 # 800020e0 <test_13_data>
8000035c:	00053007          	fld	ft0,0(a0)
80000360:	00853087          	fld	ft1,8(a0)
80000364:	01053107          	fld	ft2,16(a0)
80000368:	01852683          	lw	a3,24(a0)
8000036c:	01c52303          	lw	t1,28(a0)
80000370:	2a1011d3          	fmax.d	ft3,ft0,ft1
80000374:	00353027          	fsd	ft3,0(a0)
80000378:	00452383          	lw	t2,4(a0)
8000037c:	00052503          	lw	a0,0(a0)
80000380:	001015f3          	fsflags	a1,zero
80000384:	00000613          	li	a2,0
80000388:	34d51063          	bne	a0,a3,800006c8 <fail>
8000038c:	32731e63          	bne	t1,t2,800006c8 <fail>
80000390:	32c59c63          	bne	a1,a2,800006c8 <fail>

80000394 <test_14>:
80000394:	00e00193          	li	gp,14
80000398:	00002e17          	auipc	t3,0x2
8000039c:	ea8e0e13          	addi	t3,t3,-344 # 80002240 <begin_signature>
800003a0:	023e2c23          	sw	gp,56(t3)
800003a4:	00002517          	auipc	a0,0x2
800003a8:	d5c50513          	addi	a0,a0,-676 # 80002100 <test_14_data>
800003ac:	00053007          	fld	ft0,0(a0)
800003b0:	00853087          	fld	ft1,8(a0)
800003b4:	01053107          	fld	ft2,16(a0)
800003b8:	01852683          	lw	a3,24(a0)
800003bc:	01c52303          	lw	t1,28(a0)
800003c0:	2a1011d3          	fmax.d	ft3,ft0,ft1
800003c4:	00353027          	fsd	ft3,0(a0)
800003c8:	00452383          	lw	t2,4(a0)
800003cc:	00052503          	lw	a0,0(a0)
800003d0:	001015f3          	fsflags	a1,zero
800003d4:	00000613          	li	a2,0
800003d8:	2ed51863          	bne	a0,a3,800006c8 <fail>
800003dc:	2e731663          	bne	t1,t2,800006c8 <fail>
800003e0:	2ec59463          	bne	a1,a2,800006c8 <fail>

800003e4 <test_15>:
800003e4:	00f00193          	li	gp,15
800003e8:	00002e17          	auipc	t3,0x2
800003ec:	e58e0e13          	addi	t3,t3,-424 # 80002240 <begin_signature>
800003f0:	023e2e23          	sw	gp,60(t3)
800003f4:	00002517          	auipc	a0,0x2
800003f8:	d2c50513          	addi	a0,a0,-724 # 80002120 <test_15_data>
800003fc:	00053007          	fld	ft0,0(a0)
80000400:	00853087          	fld	ft1,8(a0)
80000404:	01053107          	fld	ft2,16(a0)
80000408:	01852683          	lw	a3,24(a0)
8000040c:	01c52303          	lw	t1,28(a0)
80000410:	2a1011d3          	fmax.d	ft3,ft0,ft1
80000414:	00353027          	fsd	ft3,0(a0)
80000418:	00452383          	lw	t2,4(a0)
8000041c:	00052503          	lw	a0,0(a0)
80000420:	001015f3          	fsflags	a1,zero
80000424:	00000613          	li	a2,0
80000428:	2ad51063          	bne	a0,a3,800006c8 <fail>
8000042c:	28731e63          	bne	t1,t2,800006c8 <fail>
80000430:	28c59c63          	bne	a1,a2,800006c8 <fail>

80000434 <test_16>:
80000434:	01000193          	li	gp,16
80000438:	00002e17          	auipc	t3,0x2
8000043c:	e08e0e13          	addi	t3,t3,-504 # 80002240 <begin_signature>
80000440:	043e2023          	sw	gp,64(t3)
80000444:	00002517          	auipc	a0,0x2
80000448:	cfc50513          	addi	a0,a0,-772 # 80002140 <test_16_data>
8000044c:	00053007          	fld	ft0,0(a0)
80000450:	00853087          	fld	ft1,8(a0)
80000454:	01053107          	fld	ft2,16(a0)
80000458:	01852683          	lw	a3,24(a0)
8000045c:	01c52303          	lw	t1,28(a0)
80000460:	2a1011d3          	fmax.d	ft3,ft0,ft1
80000464:	00353027          	fsd	ft3,0(a0)
80000468:	00452383          	lw	t2,4(a0)
8000046c:	00052503          	lw	a0,0(a0)
80000470:	001015f3          	fsflags	a1,zero
80000474:	00000613          	li	a2,0
80000478:	24d51863          	bne	a0,a3,800006c8 <fail>
8000047c:	24731663          	bne	t1,t2,800006c8 <fail>
80000480:	24c59463          	bne	a1,a2,800006c8 <fail>

80000484 <test_17>:
80000484:	01100193          	li	gp,17
80000488:	00002e17          	auipc	t3,0x2
8000048c:	db8e0e13          	addi	t3,t3,-584 # 80002240 <begin_signature>
80000490:	043e2223          	sw	gp,68(t3)
80000494:	00002517          	auipc	a0,0x2
80000498:	ccc50513          	addi	a0,a0,-820 # 80002160 <test_17_data>
8000049c:	00053007          	fld	ft0,0(a0)
800004a0:	00853087          	fld	ft1,8(a0)
800004a4:	01053107          	fld	ft2,16(a0)
800004a8:	01852683          	lw	a3,24(a0)
800004ac:	01c52303          	lw	t1,28(a0)
800004b0:	2a1011d3          	fmax.d	ft3,ft0,ft1
800004b4:	00353027          	fsd	ft3,0(a0)
800004b8:	00452383          	lw	t2,4(a0)
800004bc:	00052503          	lw	a0,0(a0)
800004c0:	001015f3          	fsflags	a1,zero
800004c4:	00000613          	li	a2,0
800004c8:	20d51063          	bne	a0,a3,800006c8 <fail>
800004cc:	1e731e63          	bne	t1,t2,800006c8 <fail>
800004d0:	1ec59c63          	bne	a1,a2,800006c8 <fail>

800004d4 <test_20>:
800004d4:	01400193          	li	gp,20
800004d8:	00002e17          	auipc	t3,0x2
800004dc:	d68e0e13          	addi	t3,t3,-664 # 80002240 <begin_signature>
800004e0:	043e2823          	sw	gp,80(t3)
800004e4:	00002517          	auipc	a0,0x2
800004e8:	c9c50513          	addi	a0,a0,-868 # 80002180 <test_20_data>
800004ec:	00053007          	fld	ft0,0(a0)
800004f0:	00853087          	fld	ft1,8(a0)
800004f4:	01053107          	fld	ft2,16(a0)
800004f8:	01852683          	lw	a3,24(a0)
800004fc:	01c52303          	lw	t1,28(a0)
80000500:	2a1011d3          	fmax.d	ft3,ft0,ft1
80000504:	00353027          	fsd	ft3,0(a0)
80000508:	00452383          	lw	t2,4(a0)
8000050c:	00052503          	lw	a0,0(a0)
80000510:	001015f3          	fsflags	a1,zero
80000514:	01000613          	li	a2,16
80000518:	1ad51863          	bne	a0,a3,800006c8 <fail>
8000051c:	1a731663          	bne	t1,t2,800006c8 <fail>
80000520:	1ac59463          	bne	a1,a2,800006c8 <fail>

80000524 <test_21>:
80000524:	01500193          	li	gp,21
80000528:	00002e17          	auipc	t3,0x2
8000052c:	d18e0e13          	addi	t3,t3,-744 # 80002240 <begin_signature>
80000530:	043e2a23          	sw	gp,84(t3)
80000534:	00002517          	auipc	a0,0x2
80000538:	c6c50513          	addi	a0,a0,-916 # 800021a0 <test_21_data>
8000053c:	00053007          	fld	ft0,0(a0)
80000540:	00853087          	fld	ft1,8(a0)
80000544:	01053107          	fld	ft2,16(a0)
80000548:	01852683          	lw	a3,24(a0)
8000054c:	01c52303          	lw	t1,28(a0)
80000550:	2a1011d3          	fmax.d	ft3,ft0,ft1
80000554:	00353027          	fsd	ft3,0(a0)
80000558:	00452383          	lw	t2,4(a0)
8000055c:	00052503          	lw	a0,0(a0)
80000560:	001015f3          	fsflags	a1,zero
80000564:	00000613          	li	a2,0
80000568:	16d51063          	bne	a0,a3,800006c8 <fail>
8000056c:	14731e63          	bne	t1,t2,800006c8 <fail>
80000570:	14c59c63          	bne	a1,a2,800006c8 <fail>

80000574 <test_30>:
80000574:	01e00193          	li	gp,30
80000578:	00002e17          	auipc	t3,0x2
8000057c:	cc8e0e13          	addi	t3,t3,-824 # 80002240 <begin_signature>
80000580:	063e2c23          	sw	gp,120(t3)
80000584:	00002517          	auipc	a0,0x2
80000588:	c3c50513          	addi	a0,a0,-964 # 800021c0 <test_30_data>
8000058c:	00053007          	fld	ft0,0(a0)
80000590:	00853087          	fld	ft1,8(a0)
80000594:	01053107          	fld	ft2,16(a0)
80000598:	01852683          	lw	a3,24(a0)
8000059c:	01c52303          	lw	t1,28(a0)
800005a0:	2a1001d3          	fmin.d	ft3,ft0,ft1
800005a4:	00353027          	fsd	ft3,0(a0)
800005a8:	00452383          	lw	t2,4(a0)
800005ac:	00052503          	lw	a0,0(a0)
800005b0:	001015f3          	fsflags	a1,zero
800005b4:	00000613          	li	a2,0
800005b8:	10d51863          	bne	a0,a3,800006c8 <fail>
800005bc:	10731663          	bne	t1,t2,800006c8 <fail>
800005c0:	10c59463          	bne	a1,a2,800006c8 <fail>

800005c4 <test_31>:
800005c4:	01f00193          	li	gp,31
800005c8:	00002e17          	auipc	t3,0x2
800005cc:	c78e0e13          	addi	t3,t3,-904 # 80002240 <begin_signature>
800005d0:	063e2e23          	sw	gp,124(t3)
800005d4:	00002517          	auipc	a0,0x2
800005d8:	c0c50513          	addi	a0,a0,-1012 # 800021e0 <test_31_data>
800005dc:	00053007          	fld	ft0,0(a0)
800005e0:	00853087          	fld	ft1,8(a0)
800005e4:	01053107          	fld	ft2,16(a0)
800005e8:	01852683          	lw	a3,24(a0)
800005ec:	01c52303          	lw	t1,28(a0)
800005f0:	2a1001d3          	fmin.d	ft3,ft0,ft1
800005f4:	00353027          	fsd	ft3,0(a0)
800005f8:	00452383          	lw	t2,4(a0)
800005fc:	00052503          	lw	a0,0(a0)
80000600:	001015f3          	fsflags	a1,zero
80000604:	00000613          	li	a2,0
80000608:	0cd51063          	bne	a0,a3,800006c8 <fail>
8000060c:	0a731e63          	bne	t1,t2,800006c8 <fail>
80000610:	0ac59c63          	bne	a1,a2,800006c8 <fail>

80000614 <test_32>:
80000614:	02000193          	li	gp,32
80000618:	00002e17          	auipc	t3,0x2
8000061c:	c28e0e13          	addi	t3,t3,-984 # 80002240 <begin_signature>
80000620:	083e2023          	sw	gp,128(t3)
80000624:	00002517          	auipc	a0,0x2
80000628:	bdc50513          	addi	a0,a0,-1060 # 80002200 <test_32_data>
8000062c:	00053007          	fld	ft0,0(a0)
80000630:	00853087          	fld	ft1,8(a0)
80000634:	01053107          	fld	ft2,16(a0)
80000638:	01852683          	lw	a3,24(a0)
8000063c:	01c52303          	lw	t1,28(a0)
80000640:	2a1011d3          	fmax.d	ft3,ft0,ft1
80000644:	00353027          	fsd	ft3,0(a0)
80000648:	00452383          	lw	t2,4(a0)
8000064c:	00052503          	lw	a0,0(a0)
80000650:	001015f3          	fsflags	a1,zero
80000654:	00000613          	li	a2,0
80000658:	06d51863          	bne	a0,a3,800006c8 <fail>
8000065c:	06731663          	bne	t1,t2,800006c8 <fail>
80000660:	06c59463          	bne	a1,a2,800006c8 <fail>

80000664 <test_33>:
80000664:	02100193          	li	gp,33
80000668:	00002e17          	auipc	t3,0x2
8000066c:	bd8e0e13          	addi	t3,t3,-1064 # 80002240 <begin_signature>
80000670:	083e2223          	sw	gp,132(t3)
80000674:	00002517          	auipc	a0,0x2
80000678:	bac50513          	addi	a0,a0,-1108 # 80002220 <test_33_data>
8000067c:	00053007          	fld	ft0,0(a0)
80000680:	00853087          	fld	ft1,8(a0)
80000684:	01053107          	fld	ft2,16(a0)
80000688:	01852683          	lw	a3,24(a0)
8000068c:	01c52303          	lw	t1,28(a0)
80000690:	2a1011d3          	fmax.d	ft3,ft0,ft1
80000694:	00353027          	fsd	ft3,0(a0)
80000698:	00452383          	lw	t2,4(a0)
8000069c:	00052503          	lw	a0,0(a0)
800006a0:	001015f3          	fsflags	a1,zero
800006a4:	00000613          	li	a2,0
800006a8:	02d51063          	bne	a0,a3,800006c8 <fail>
800006ac:	00731e63          	bne	t1,t2,800006c8 <fail>
800006b0:	00c59c63          	bne	a1,a2,800006c8 <fail>
800006b4:	02200193          	li	gp,34
800006b8:	00002e17          	auipc	t3,0x2
800006bc:	b88e0e13          	addi	t3,t3,-1144 # 80002240 <begin_signature>
800006c0:	083e2423          	sw	gp,136(t3)
800006c4:	00301e63          	bne	zero,gp,800006e0 <pass>

800006c8 <fail>:
800006c8:	0ff0000f          	fence
800006cc:	00100193          	li	gp,1
800006d0:	00002e17          	auipc	t3,0x2
800006d4:	b70e0e13          	addi	t3,t3,-1168 # 80002240 <begin_signature>
800006d8:	003e2023          	sw	gp,0(t3)
800006dc:	00000073          	ecall

800006e0 <pass>:
800006e0:	0ff0000f          	fence
800006e4:	00100193          	li	gp,1
800006e8:	00002e17          	auipc	t3,0x2
800006ec:	b58e0e13          	addi	t3,t3,-1192 # 80002240 <begin_signature>
800006f0:	003e2023          	sw	gp,0(t3)
800006f4:	00000073          	ecall

800006f8 <end_testcode>:
800006f8:	c0001073          	unimp
	...

Disassembly of section .tohost:

80001000 <tohost>:
	...

80001100 <fromhost>:
	...

Disassembly of section .data:

80002000 <test_2_data>:
80002000:	0000                	unimp
80002002:	0000                	unimp
80002004:	0000                	unimp
80002006:	4004                	lw	s1,0(s0)
80002008:	0000                	unimp
8000200a:	0000                	unimp
8000200c:	0000                	unimp
8000200e:	3ff0                	fld	fa2,248(a5)
	...
8000201c:	0000                	unimp
8000201e:	3ff0                	fld	fa2,248(a5)

80002020 <test_3_data>:
80002020:	6666                	flw	fa2,88(sp)
80002022:	6666                	flw	fa2,88(sp)
80002024:	4c66                	lw	s8,88(sp)
80002026:	999ac093          	xori	ra,s5,-1639
8000202a:	9999                	andi	a1,a1,-26
8000202c:	9999                	andi	a1,a1,-26
8000202e:	3ff1                	jal	8000200a <test_2_data+0xa>
	...
80002038:	6666                	flw	fa2,88(sp)
8000203a:	6666                	flw	fa2,88(sp)
8000203c:	4c66                	lw	s8,88(sp)
8000203e:	          	xori	ra,s5,-1639

80002040 <test_4_data>:
80002040:	999a                	add	s3,s3,t1
80002042:	9999                	andi	a1,a1,-26
80002044:	9999                	andi	a1,a1,-26
80002046:	3ff1                	jal	80002022 <test_3_data+0x2>
80002048:	6666                	flw	fa2,88(sp)
8000204a:	6666                	flw	fa2,88(sp)
8000204c:	4c66                	lw	s8,88(sp)
8000204e:	0000c093          	xori	ra,ra,0
80002052:	0000                	unimp
80002054:	0000                	unimp
80002056:	0000                	unimp
80002058:	6666                	flw	fa2,88(sp)
8000205a:	6666                	flw	fa2,88(sp)
8000205c:	4c66                	lw	s8,88(sp)
8000205e:	          	not	ra,t6

80002060 <test_5_data>:
80002060:	ffff                	0xffff
80002062:	ffff                	0xffff
80002064:	ffff                	0xffff
80002066:	7fff                	0x7fff
80002068:	6666                	flw	fa2,88(sp)
8000206a:	6666                	flw	fa2,88(sp)
8000206c:	4c66                	lw	s8,88(sp)
8000206e:	0000c093          	xori	ra,ra,0
80002072:	0000                	unimp
80002074:	0000                	unimp
80002076:	0000                	unimp
80002078:	6666                	flw	fa2,88(sp)
8000207a:	6666                	flw	fa2,88(sp)
8000207c:	4c66                	lw	s8,88(sp)
8000207e:	          	xori	ra,gp,-689

80002080 <test_6_data>:
80002080:	d4f1                	beqz	s1,8000204c <test_4_data+0xc>
80002082:	53c8                	lw	a0,36(a5)
80002084:	400921fb          	0x400921fb
80002088:	8c3a                	mv	s8,a4
8000208a:	e230                	fsw	fa2,64(a2)
8000208c:	798e                	flw	fs3,224(sp)
8000208e:	3e45                	jal	80001c3e <fromhost+0xb3e>
	...
80002098:	8c3a                	mv	s8,a4
8000209a:	e230                	fsw	fa2,64(a2)
8000209c:	798e                	flw	fs3,224(sp)
8000209e:	3e45                	jal	80001c4e <fromhost+0xb4e>

800020a0 <test_7_data>:
800020a0:	0000                	unimp
800020a2:	0000                	unimp
800020a4:	0000                	unimp
800020a6:	bff0                	fsd	fa2,248(a5)
800020a8:	0000                	unimp
800020aa:	0000                	unimp
800020ac:	0000                	unimp
800020ae:	c000                	sw	s0,0(s0)
	...
800020bc:	0000                	unimp
800020be:	c000                	sw	s0,0(s0)

800020c0 <test_12_data>:
800020c0:	0000                	unimp
800020c2:	0000                	unimp
800020c4:	0000                	unimp
800020c6:	4004                	lw	s1,0(s0)
800020c8:	0000                	unimp
800020ca:	0000                	unimp
800020cc:	0000                	unimp
800020ce:	3ff0                	fld	fa2,248(a5)
	...
800020dc:	0000                	unimp
800020de:	4004                	lw	s1,0(s0)

800020e0 <test_13_data>:
800020e0:	6666                	flw	fa2,88(sp)
800020e2:	6666                	flw	fa2,88(sp)
800020e4:	4c66                	lw	s8,88(sp)
800020e6:	999ac093          	xori	ra,s5,-1639
800020ea:	9999                	andi	a1,a1,-26
800020ec:	9999                	andi	a1,a1,-26
800020ee:	3ff1                	jal	800020ca <test_12_data+0xa>
	...
800020f8:	999a                	add	s3,s3,t1
800020fa:	9999                	andi	a1,a1,-26
800020fc:	9999                	andi	a1,a1,-26
800020fe:	3ff1                	jal	800020da <test_12_data+0x1a>

80002100 <test_14_data>:
80002100:	999a                	add	s3,s3,t1
80002102:	9999                	andi	a1,a1,-26
80002104:	9999                	andi	a1,a1,-26
80002106:	3ff1                	jal	800020e2 <test_13_data+0x2>
80002108:	6666                	flw	fa2,88(sp)
8000210a:	6666                	flw	fa2,88(sp)
8000210c:	4c66                	lw	s8,88(sp)
8000210e:	0000c093          	xori	ra,ra,0
80002112:	0000                	unimp
80002114:	0000                	unimp
80002116:	0000                	unimp
80002118:	999a                	add	s3,s3,t1
8000211a:	9999                	andi	a1,a1,-26
8000211c:	9999                	andi	a1,a1,-26
8000211e:	3ff1                	jal	800020fa <test_13_data+0x1a>

80002120 <test_15_data>:
80002120:	ffff                	0xffff
80002122:	ffff                	0xffff
80002124:	ffff                	0xffff
80002126:	7fff                	0x7fff
80002128:	6666                	flw	fa2,88(sp)
8000212a:	6666                	flw	fa2,88(sp)
8000212c:	4c66                	lw	s8,88(sp)
8000212e:	0000c093          	xori	ra,ra,0
80002132:	0000                	unimp
80002134:	0000                	unimp
80002136:	0000                	unimp
80002138:	6666                	flw	fa2,88(sp)
8000213a:	6666                	flw	fa2,88(sp)
8000213c:	4c66                	lw	s8,88(sp)
8000213e:	          	xori	ra,gp,-689

80002140 <test_16_data>:
80002140:	d4f1                	beqz	s1,8000210c <test_14_data+0xc>
80002142:	53c8                	lw	a0,36(a5)
80002144:	400921fb          	0x400921fb
80002148:	8c3a                	mv	s8,a4
8000214a:	e230                	fsw	fa2,64(a2)
8000214c:	798e                	flw	fs3,224(sp)
8000214e:	3e45                	jal	80001cfe <fromhost+0xbfe>
	...
80002158:	d4f1                	beqz	s1,80002124 <test_15_data+0x4>
8000215a:	53c8                	lw	a0,36(a5)
8000215c:	400921fb          	0x400921fb

80002160 <test_17_data>:
80002160:	0000                	unimp
80002162:	0000                	unimp
80002164:	0000                	unimp
80002166:	bff0                	fsd	fa2,248(a5)
80002168:	0000                	unimp
8000216a:	0000                	unimp
8000216c:	0000                	unimp
8000216e:	c000                	sw	s0,0(s0)
	...
8000217c:	0000                	unimp
8000217e:	bff0                	fsd	fa2,248(a5)

80002180 <test_20_data>:
80002180:	0001                	nop
80002182:	0000                	unimp
80002184:	0000                	unimp
80002186:	7ff0                	flw	fa2,124(a5)
80002188:	0000                	unimp
8000218a:	0000                	unimp
8000218c:	0000                	unimp
8000218e:	3ff0                	fld	fa2,248(a5)
	...
8000219c:	0000                	unimp
8000219e:	3ff0                	fld	fa2,248(a5)

800021a0 <test_21_data>:
800021a0:	ffff                	0xffff
800021a2:	ffff                	0xffff
800021a4:	ffff                	0xffff
800021a6:	7fff                	0x7fff
800021a8:	ffff                	0xffff
800021aa:	ffff                	0xffff
800021ac:	ffff                	0xffff
800021ae:	7fff                	0x7fff
	...
800021bc:	0000                	unimp
800021be:	7ff8                	flw	fa4,124(a5)

800021c0 <test_30_data>:
800021c0:	0000                	unimp
800021c2:	0000                	unimp
800021c4:	0000                	unimp
800021c6:	8000                	0x8000
	...
800021dc:	0000                	unimp
800021de:	8000                	0x8000

800021e0 <test_31_data>:
	...
800021ec:	0000                	unimp
800021ee:	8000                	0x8000
	...
800021fc:	0000                	unimp
800021fe:	8000                	0x8000

80002200 <test_32_data>:
80002200:	0000                	unimp
80002202:	0000                	unimp
80002204:	0000                	unimp
80002206:	8000                	0x8000
	...

80002220 <test_33_data>:
	...
8000222c:	0000                	unimp
8000222e:	8000                	0x8000
	...

80002240 <begin_signature>:
80002240:	ffff                	0xffff
80002242:	ffff                	0xffff
80002244:	ffff                	0xffff
80002246:	ffff                	0xffff
80002248:	ffff                	0xffff
8000224a:	ffff                	0xffff
8000224c:	ffff                	0xffff
8000224e:	ffff                	0xffff
80002250:	ffff                	0xffff
80002252:	ffff                	0xffff
80002254:	ffff                	0xffff
80002256:	ffff                	0xffff
80002258:	ffff                	0xffff
8000225a:	ffff                	0xffff
8000225c:	ffff                	0xffff
8000225e:	ffff                	0xffff
80002260:	ffff                	0xffff
80002262:	ffff                	0xffff
80002264:	ffff                	0xffff
80002266:	ffff                	0xffff
80002268:	ffff                	0xffff
8000226a:	ffff                	0xffff
8000226c:	ffff                	0xffff
8000226e:	ffff                	0xffff
80002270:	ffff                	0xffff
80002272:	ffff                	0xffff
80002274:	ffff                	0xffff
80002276:	ffff                	0xffff
80002278:	ffff                	0xffff
8000227a:	ffff                	0xffff
8000227c:	ffff                	0xffff
8000227e:	ffff                	0xffff
80002280:	ffff                	0xffff
80002282:	ffff                	0xffff
80002284:	ffff                	0xffff
80002286:	ffff                	0xffff
80002288:	ffff                	0xffff
8000228a:	ffff                	0xffff
8000228c:	ffff                	0xffff
8000228e:	ffff                	0xffff
80002290:	ffff                	0xffff
80002292:	ffff                	0xffff
80002294:	ffff                	0xffff
80002296:	ffff                	0xffff
80002298:	ffff                	0xffff
8000229a:	ffff                	0xffff
8000229c:	ffff                	0xffff
8000229e:	ffff                	0xffff
800022a0:	ffff                	0xffff
800022a2:	ffff                	0xffff
800022a4:	ffff                	0xffff
800022a6:	ffff                	0xffff
800022a8:	ffff                	0xffff
800022aa:	ffff                	0xffff
800022ac:	ffff                	0xffff
800022ae:	ffff                	0xffff
800022b0:	ffff                	0xffff
800022b2:	ffff                	0xffff
800022b4:	ffff                	0xffff
800022b6:	ffff                	0xffff
800022b8:	ffff                	0xffff
800022ba:	ffff                	0xffff
800022bc:	ffff                	0xffff
800022be:	ffff                	0xffff
800022c0:	ffff                	0xffff
800022c2:	ffff                	0xffff
800022c4:	ffff                	0xffff
800022c6:	ffff                	0xffff
800022c8:	ffff                	0xffff
800022ca:	ffff                	0xffff
800022cc:	ffff                	0xffff
800022ce:	ffff                	0xffff
800022d0:	ffff                	0xffff
800022d2:	ffff                	0xffff
800022d4:	ffff                	0xffff
800022d6:	ffff                	0xffff
800022d8:	ffff                	0xffff
800022da:	ffff                	0xffff
800022dc:	ffff                	0xffff
800022de:	ffff                	0xffff

800022e0 <end_signature>:
	...

80002300 <begin_regstate>:
80002300:	0080                	addi	s0,sp,64
	...

80002400 <end_regstate>:
80002400:	0004                	0x4
	...
