
/home/ubuntu/Downloads/NF5_test/riscv-compliance-master/work/rv32uc/rvc.elf：     文件格式 elf32-littleriscv


Disassembly of section .text.init:

00000000 <_start>:
       0:	a081                	j	40 <reset_vector>
       2:	0001                	nop

00000004 <trap_vector>:
       4:	34202f73          	csrr	t5,mcause
       8:	4fa1                	li	t6,8
       a:	03ff0663          	beq	t5,t6,36 <write_tohost>
       e:	4fa5                	li	t6,9
      10:	03ff0363          	beq	t5,t6,36 <write_tohost>
      14:	4fad                	li	t6,11
      16:	03ff0063          	beq	t5,t6,36 <write_tohost>
      1a:	00000f17          	auipc	t5,0x0
      1e:	fe6f0f13          	addi	t5,t5,-26 # 0 <_start>
      22:	000f0363          	beqz	t5,28 <trap_vector+0x24>
      26:	8f02                	jr	t5
      28:	34202f73          	csrr	t5,mcause
      2c:	000f5363          	bgez	t5,32 <handle_exception>
      30:	a009                	j	32 <handle_exception>

00000032 <handle_exception>:
      32:	5391e193          	ori	gp,gp,1337

00000036 <write_tohost>:
      36:	00003f17          	auipc	t5,0x3
      3a:	fc3f2523          	sw	gp,-54(t5) # 3000 <tohost>
      3e:	bfe5                	j	36 <write_tohost>

00000040 <reset_vector>:
      40:	f1402573          	csrr	a0,mhartid
      44:	e101                	bnez	a0,44 <reset_vector+0x4>
      46:	00000297          	auipc	t0,0x0
      4a:	01228293          	addi	t0,t0,18 # 58 <reset_vector+0x18>
      4e:	30529073          	csrw	mtvec,t0
      52:	18005073          	csrwi	satp,0
      56:	0001                	nop
      58:	00000297          	auipc	t0,0x0
      5c:	01828293          	addi	t0,t0,24 # 70 <reset_vector+0x30>
      60:	30529073          	csrw	mtvec,t0
      64:	52fd                	li	t0,-1
      66:	3b029073          	csrw	pmpaddr0,t0
      6a:	42fd                	li	t0,31
      6c:	3a029073          	csrw	pmpcfg0,t0
      70:	00000297          	auipc	t0,0x0
      74:	01828293          	addi	t0,t0,24 # 88 <reset_vector+0x48>
      78:	30529073          	csrw	mtvec,t0
      7c:	30205073          	csrwi	medeleg,0
      80:	30305073          	csrwi	mideleg,0
      84:	30405073          	csrwi	mie,0
      88:	4181                	li	gp,0
      8a:	00000297          	auipc	t0,0x0
      8e:	f7a28293          	addi	t0,t0,-134 # 4 <trap_vector>
      92:	30529073          	csrw	mtvec,t0
      96:	4505                	li	a0,1
      98:	057e                	slli	a0,a0,0x1f
      9a:	00054d63          	bltz	a0,b4 <reset_vector+0x74>
      9e:	0ff0000f          	fence
      a2:	4185                	li	gp,1
      a4:	00004e17          	auipc	t3,0x4
      a8:	f5ce0e13          	addi	t3,t3,-164 # 4000 <begin_signature>
      ac:	003e2023          	sw	gp,0(t3)
      b0:	00000073          	ecall
      b4:	00000297          	auipc	t0,0x0
      b8:	f4c28293          	addi	t0,t0,-180 # 0 <_start>
      bc:	00028e63          	beqz	t0,d8 <reset_vector+0x98>
      c0:	10529073          	csrw	stvec,t0
      c4:	0000b2b7          	lui	t0,0xb
      c8:	10928293          	addi	t0,t0,265 # b109 <_end+0x6f05>
      cc:	30229073          	csrw	medeleg,t0
      d0:	30202373          	csrr	t1,medeleg
      d4:	f4629fe3          	bne	t0,t1,32 <handle_exception>
      d8:	30005073          	csrwi	mstatus,0
      dc:	00000297          	auipc	t0,0x0
      e0:	01428293          	addi	t0,t0,20 # f0 <begin_testcode>
      e4:	34129073          	csrw	mepc,t0
      e8:	f1402573          	csrr	a0,mhartid
      ec:	30200073          	mret

000000f0 <begin_testcode>:
      f0:	00200193          	li	gp,2
      f4:	29a00593          	li	a1,666

000000f8 <test_2>:
      f8:	7070106f          	j	1ffe <data+0x1efe>
      fc:	00000013          	nop

00000100 <data>:
     100:	3210                	fld	fa2,32(a2)
     102:	7654                	flw	fa3,44(a2)
     104:	ba98                	fsd	fa4,48(a3)
     106:	fedc                	fsw	fa5,60(a3)
     108:	3210                	fld	fa2,32(a2)
     10a:	7654                	flw	fa3,44(a2)
     10c:	ba98                	fsd	fa4,48(a3)
     10e:	fedc                	fsw	fa5,60(a3)
     110:	00000013          	nop
     114:	00000013          	nop
     118:	00000013          	nop
     11c:	00000013          	nop
     120:	00000013          	nop
     124:	00000013          	nop
     128:	00000013          	nop
     12c:	00000013          	nop
     130:	00000013          	nop
     134:	00000013          	nop
     138:	00000013          	nop
     13c:	00000013          	nop
     140:	00000013          	nop
     144:	00000013          	nop
     148:	00000013          	nop
     14c:	00000013          	nop
     150:	00000013          	nop
     154:	00000013          	nop
     158:	00000013          	nop
     15c:	00000013          	nop
     160:	00000013          	nop
     164:	00000013          	nop
     168:	00000013          	nop
     16c:	00000013          	nop
     170:	00000013          	nop
     174:	00000013          	nop
     178:	00000013          	nop
     17c:	00000013          	nop
     180:	00000013          	nop
     184:	00000013          	nop
     188:	00000013          	nop
     18c:	00000013          	nop
     190:	00000013          	nop
     194:	00000013          	nop
     198:	00000013          	nop
     19c:	00000013          	nop
     1a0:	00000013          	nop
     1a4:	00000013          	nop
     1a8:	00000013          	nop
     1ac:	00000013          	nop
     1b0:	00000013          	nop
     1b4:	00000013          	nop
     1b8:	00000013          	nop
     1bc:	00000013          	nop
     1c0:	00000013          	nop
     1c4:	00000013          	nop
     1c8:	00000013          	nop
     1cc:	00000013          	nop
     1d0:	00000013          	nop
     1d4:	00000013          	nop
     1d8:	00000013          	nop
     1dc:	00000013          	nop
     1e0:	00000013          	nop
     1e4:	00000013          	nop
     1e8:	00000013          	nop
     1ec:	00000013          	nop
     1f0:	00000013          	nop
     1f4:	00000013          	nop
     1f8:	00000013          	nop
     1fc:	00000013          	nop
     200:	00000013          	nop
     204:	00000013          	nop
     208:	00000013          	nop
     20c:	00000013          	nop
     210:	00000013          	nop
     214:	00000013          	nop
     218:	00000013          	nop
     21c:	00000013          	nop
     220:	00000013          	nop
     224:	00000013          	nop
     228:	00000013          	nop
     22c:	00000013          	nop
     230:	00000013          	nop
     234:	00000013          	nop
     238:	00000013          	nop
     23c:	00000013          	nop
     240:	00000013          	nop
     244:	00000013          	nop
     248:	00000013          	nop
     24c:	00000013          	nop
     250:	00000013          	nop
     254:	00000013          	nop
     258:	00000013          	nop
     25c:	00000013          	nop
     260:	00000013          	nop
     264:	00000013          	nop
     268:	00000013          	nop
     26c:	00000013          	nop
     270:	00000013          	nop
     274:	00000013          	nop
     278:	00000013          	nop
     27c:	00000013          	nop
     280:	00000013          	nop
     284:	00000013          	nop
     288:	00000013          	nop
     28c:	00000013          	nop
     290:	00000013          	nop
     294:	00000013          	nop
     298:	00000013          	nop
     29c:	00000013          	nop
     2a0:	00000013          	nop
     2a4:	00000013          	nop
     2a8:	00000013          	nop
     2ac:	00000013          	nop
     2b0:	00000013          	nop
     2b4:	00000013          	nop
     2b8:	00000013          	nop
     2bc:	00000013          	nop
     2c0:	00000013          	nop
     2c4:	00000013          	nop
     2c8:	00000013          	nop
     2cc:	00000013          	nop
     2d0:	00000013          	nop
     2d4:	00000013          	nop
     2d8:	00000013          	nop
     2dc:	00000013          	nop
     2e0:	00000013          	nop
     2e4:	00000013          	nop
     2e8:	00000013          	nop
     2ec:	00000013          	nop
     2f0:	00000013          	nop
     2f4:	00000013          	nop
     2f8:	00000013          	nop
     2fc:	00000013          	nop
     300:	00000013          	nop
     304:	00000013          	nop
     308:	00000013          	nop
     30c:	00000013          	nop
     310:	00000013          	nop
     314:	00000013          	nop
     318:	00000013          	nop
     31c:	00000013          	nop
     320:	00000013          	nop
     324:	00000013          	nop
     328:	00000013          	nop
     32c:	00000013          	nop
     330:	00000013          	nop
     334:	00000013          	nop
     338:	00000013          	nop
     33c:	00000013          	nop
     340:	00000013          	nop
     344:	00000013          	nop
     348:	00000013          	nop
     34c:	00000013          	nop
     350:	00000013          	nop
     354:	00000013          	nop
     358:	00000013          	nop
     35c:	00000013          	nop
     360:	00000013          	nop
     364:	00000013          	nop
     368:	00000013          	nop
     36c:	00000013          	nop
     370:	00000013          	nop
     374:	00000013          	nop
     378:	00000013          	nop
     37c:	00000013          	nop
     380:	00000013          	nop
     384:	00000013          	nop
     388:	00000013          	nop
     38c:	00000013          	nop
     390:	00000013          	nop
     394:	00000013          	nop
     398:	00000013          	nop
     39c:	00000013          	nop
     3a0:	00000013          	nop
     3a4:	00000013          	nop
     3a8:	00000013          	nop
     3ac:	00000013          	nop
     3b0:	00000013          	nop
     3b4:	00000013          	nop
     3b8:	00000013          	nop
     3bc:	00000013          	nop
     3c0:	00000013          	nop
     3c4:	00000013          	nop
     3c8:	00000013          	nop
     3cc:	00000013          	nop
     3d0:	00000013          	nop
     3d4:	00000013          	nop
     3d8:	00000013          	nop
     3dc:	00000013          	nop
     3e0:	00000013          	nop
     3e4:	00000013          	nop
     3e8:	00000013          	nop
     3ec:	00000013          	nop
     3f0:	00000013          	nop
     3f4:	00000013          	nop
     3f8:	00000013          	nop
     3fc:	00000013          	nop
     400:	00000013          	nop
     404:	00000013          	nop
     408:	00000013          	nop
     40c:	00000013          	nop
     410:	00000013          	nop
     414:	00000013          	nop
     418:	00000013          	nop
     41c:	00000013          	nop
     420:	00000013          	nop
     424:	00000013          	nop
     428:	00000013          	nop
     42c:	00000013          	nop
     430:	00000013          	nop
     434:	00000013          	nop
     438:	00000013          	nop
     43c:	00000013          	nop
     440:	00000013          	nop
     444:	00000013          	nop
     448:	00000013          	nop
     44c:	00000013          	nop
     450:	00000013          	nop
     454:	00000013          	nop
     458:	00000013          	nop
     45c:	00000013          	nop
     460:	00000013          	nop
     464:	00000013          	nop
     468:	00000013          	nop
     46c:	00000013          	nop
     470:	00000013          	nop
     474:	00000013          	nop
     478:	00000013          	nop
     47c:	00000013          	nop
     480:	00000013          	nop
     484:	00000013          	nop
     488:	00000013          	nop
     48c:	00000013          	nop
     490:	00000013          	nop
     494:	00000013          	nop
     498:	00000013          	nop
     49c:	00000013          	nop
     4a0:	00000013          	nop
     4a4:	00000013          	nop
     4a8:	00000013          	nop
     4ac:	00000013          	nop
     4b0:	00000013          	nop
     4b4:	00000013          	nop
     4b8:	00000013          	nop
     4bc:	00000013          	nop
     4c0:	00000013          	nop
     4c4:	00000013          	nop
     4c8:	00000013          	nop
     4cc:	00000013          	nop
     4d0:	00000013          	nop
     4d4:	00000013          	nop
     4d8:	00000013          	nop
     4dc:	00000013          	nop
     4e0:	00000013          	nop
     4e4:	00000013          	nop
     4e8:	00000013          	nop
     4ec:	00000013          	nop
     4f0:	00000013          	nop
     4f4:	00000013          	nop
     4f8:	00000013          	nop
     4fc:	00000013          	nop
     500:	00000013          	nop
     504:	00000013          	nop
     508:	00000013          	nop
     50c:	00000013          	nop
     510:	00000013          	nop
     514:	00000013          	nop
     518:	00000013          	nop
     51c:	00000013          	nop
     520:	00000013          	nop
     524:	00000013          	nop
     528:	00000013          	nop
     52c:	00000013          	nop
     530:	00000013          	nop
     534:	00000013          	nop
     538:	00000013          	nop
     53c:	00000013          	nop
     540:	00000013          	nop
     544:	00000013          	nop
     548:	00000013          	nop
     54c:	00000013          	nop
     550:	00000013          	nop
     554:	00000013          	nop
     558:	00000013          	nop
     55c:	00000013          	nop
     560:	00000013          	nop
     564:	00000013          	nop
     568:	00000013          	nop
     56c:	00000013          	nop
     570:	00000013          	nop
     574:	00000013          	nop
     578:	00000013          	nop
     57c:	00000013          	nop
     580:	00000013          	nop
     584:	00000013          	nop
     588:	00000013          	nop
     58c:	00000013          	nop
     590:	00000013          	nop
     594:	00000013          	nop
     598:	00000013          	nop
     59c:	00000013          	nop
     5a0:	00000013          	nop
     5a4:	00000013          	nop
     5a8:	00000013          	nop
     5ac:	00000013          	nop
     5b0:	00000013          	nop
     5b4:	00000013          	nop
     5b8:	00000013          	nop
     5bc:	00000013          	nop
     5c0:	00000013          	nop
     5c4:	00000013          	nop
     5c8:	00000013          	nop
     5cc:	00000013          	nop
     5d0:	00000013          	nop
     5d4:	00000013          	nop
     5d8:	00000013          	nop
     5dc:	00000013          	nop
     5e0:	00000013          	nop
     5e4:	00000013          	nop
     5e8:	00000013          	nop
     5ec:	00000013          	nop
     5f0:	00000013          	nop
     5f4:	00000013          	nop
     5f8:	00000013          	nop
     5fc:	00000013          	nop
     600:	00000013          	nop
     604:	00000013          	nop
     608:	00000013          	nop
     60c:	00000013          	nop
     610:	00000013          	nop
     614:	00000013          	nop
     618:	00000013          	nop
     61c:	00000013          	nop
     620:	00000013          	nop
     624:	00000013          	nop
     628:	00000013          	nop
     62c:	00000013          	nop
     630:	00000013          	nop
     634:	00000013          	nop
     638:	00000013          	nop
     63c:	00000013          	nop
     640:	00000013          	nop
     644:	00000013          	nop
     648:	00000013          	nop
     64c:	00000013          	nop
     650:	00000013          	nop
     654:	00000013          	nop
     658:	00000013          	nop
     65c:	00000013          	nop
     660:	00000013          	nop
     664:	00000013          	nop
     668:	00000013          	nop
     66c:	00000013          	nop
     670:	00000013          	nop
     674:	00000013          	nop
     678:	00000013          	nop
     67c:	00000013          	nop
     680:	00000013          	nop
     684:	00000013          	nop
     688:	00000013          	nop
     68c:	00000013          	nop
     690:	00000013          	nop
     694:	00000013          	nop
     698:	00000013          	nop
     69c:	00000013          	nop
     6a0:	00000013          	nop
     6a4:	00000013          	nop
     6a8:	00000013          	nop
     6ac:	00000013          	nop
     6b0:	00000013          	nop
     6b4:	00000013          	nop
     6b8:	00000013          	nop
     6bc:	00000013          	nop
     6c0:	00000013          	nop
     6c4:	00000013          	nop
     6c8:	00000013          	nop
     6cc:	00000013          	nop
     6d0:	00000013          	nop
     6d4:	00000013          	nop
     6d8:	00000013          	nop
     6dc:	00000013          	nop
     6e0:	00000013          	nop
     6e4:	00000013          	nop
     6e8:	00000013          	nop
     6ec:	00000013          	nop
     6f0:	00000013          	nop
     6f4:	00000013          	nop
     6f8:	00000013          	nop
     6fc:	00000013          	nop
     700:	00000013          	nop
     704:	00000013          	nop
     708:	00000013          	nop
     70c:	00000013          	nop
     710:	00000013          	nop
     714:	00000013          	nop
     718:	00000013          	nop
     71c:	00000013          	nop
     720:	00000013          	nop
     724:	00000013          	nop
     728:	00000013          	nop
     72c:	00000013          	nop
     730:	00000013          	nop
     734:	00000013          	nop
     738:	00000013          	nop
     73c:	00000013          	nop
     740:	00000013          	nop
     744:	00000013          	nop
     748:	00000013          	nop
     74c:	00000013          	nop
     750:	00000013          	nop
     754:	00000013          	nop
     758:	00000013          	nop
     75c:	00000013          	nop
     760:	00000013          	nop
     764:	00000013          	nop
     768:	00000013          	nop
     76c:	00000013          	nop
     770:	00000013          	nop
     774:	00000013          	nop
     778:	00000013          	nop
     77c:	00000013          	nop
     780:	00000013          	nop
     784:	00000013          	nop
     788:	00000013          	nop
     78c:	00000013          	nop
     790:	00000013          	nop
     794:	00000013          	nop
     798:	00000013          	nop
     79c:	00000013          	nop
     7a0:	00000013          	nop
     7a4:	00000013          	nop
     7a8:	00000013          	nop
     7ac:	00000013          	nop
     7b0:	00000013          	nop
     7b4:	00000013          	nop
     7b8:	00000013          	nop
     7bc:	00000013          	nop
     7c0:	00000013          	nop
     7c4:	00000013          	nop
     7c8:	00000013          	nop
     7cc:	00000013          	nop
     7d0:	00000013          	nop
     7d4:	00000013          	nop
     7d8:	00000013          	nop
     7dc:	00000013          	nop
     7e0:	00000013          	nop
     7e4:	00000013          	nop
     7e8:	00000013          	nop
     7ec:	00000013          	nop
     7f0:	00000013          	nop
     7f4:	00000013          	nop
     7f8:	00000013          	nop
     7fc:	00000013          	nop
     800:	00000013          	nop
     804:	00000013          	nop
     808:	00000013          	nop
     80c:	00000013          	nop
     810:	00000013          	nop
     814:	00000013          	nop
     818:	00000013          	nop
     81c:	00000013          	nop
     820:	00000013          	nop
     824:	00000013          	nop
     828:	00000013          	nop
     82c:	00000013          	nop
     830:	00000013          	nop
     834:	00000013          	nop
     838:	00000013          	nop
     83c:	00000013          	nop
     840:	00000013          	nop
     844:	00000013          	nop
     848:	00000013          	nop
     84c:	00000013          	nop
     850:	00000013          	nop
     854:	00000013          	nop
     858:	00000013          	nop
     85c:	00000013          	nop
     860:	00000013          	nop
     864:	00000013          	nop
     868:	00000013          	nop
     86c:	00000013          	nop
     870:	00000013          	nop
     874:	00000013          	nop
     878:	00000013          	nop
     87c:	00000013          	nop
     880:	00000013          	nop
     884:	00000013          	nop
     888:	00000013          	nop
     88c:	00000013          	nop
     890:	00000013          	nop
     894:	00000013          	nop
     898:	00000013          	nop
     89c:	00000013          	nop
     8a0:	00000013          	nop
     8a4:	00000013          	nop
     8a8:	00000013          	nop
     8ac:	00000013          	nop
     8b0:	00000013          	nop
     8b4:	00000013          	nop
     8b8:	00000013          	nop
     8bc:	00000013          	nop
     8c0:	00000013          	nop
     8c4:	00000013          	nop
     8c8:	00000013          	nop
     8cc:	00000013          	nop
     8d0:	00000013          	nop
     8d4:	00000013          	nop
     8d8:	00000013          	nop
     8dc:	00000013          	nop
     8e0:	00000013          	nop
     8e4:	00000013          	nop
     8e8:	00000013          	nop
     8ec:	00000013          	nop
     8f0:	00000013          	nop
     8f4:	00000013          	nop
     8f8:	00000013          	nop
     8fc:	00000013          	nop
     900:	00000013          	nop
     904:	00000013          	nop
     908:	00000013          	nop
     90c:	00000013          	nop
     910:	00000013          	nop
     914:	00000013          	nop
     918:	00000013          	nop
     91c:	00000013          	nop
     920:	00000013          	nop
     924:	00000013          	nop
     928:	00000013          	nop
     92c:	00000013          	nop
     930:	00000013          	nop
     934:	00000013          	nop
     938:	00000013          	nop
     93c:	00000013          	nop
     940:	00000013          	nop
     944:	00000013          	nop
     948:	00000013          	nop
     94c:	00000013          	nop
     950:	00000013          	nop
     954:	00000013          	nop
     958:	00000013          	nop
     95c:	00000013          	nop
     960:	00000013          	nop
     964:	00000013          	nop
     968:	00000013          	nop
     96c:	00000013          	nop
     970:	00000013          	nop
     974:	00000013          	nop
     978:	00000013          	nop
     97c:	00000013          	nop
     980:	00000013          	nop
     984:	00000013          	nop
     988:	00000013          	nop
     98c:	00000013          	nop
     990:	00000013          	nop
     994:	00000013          	nop
     998:	00000013          	nop
     99c:	00000013          	nop
     9a0:	00000013          	nop
     9a4:	00000013          	nop
     9a8:	00000013          	nop
     9ac:	00000013          	nop
     9b0:	00000013          	nop
     9b4:	00000013          	nop
     9b8:	00000013          	nop
     9bc:	00000013          	nop
     9c0:	00000013          	nop
     9c4:	00000013          	nop
     9c8:	00000013          	nop
     9cc:	00000013          	nop
     9d0:	00000013          	nop
     9d4:	00000013          	nop
     9d8:	00000013          	nop
     9dc:	00000013          	nop
     9e0:	00000013          	nop
     9e4:	00000013          	nop
     9e8:	00000013          	nop
     9ec:	00000013          	nop
     9f0:	00000013          	nop
     9f4:	00000013          	nop
     9f8:	00000013          	nop
     9fc:	00000013          	nop
     a00:	00000013          	nop
     a04:	00000013          	nop
     a08:	00000013          	nop
     a0c:	00000013          	nop
     a10:	00000013          	nop
     a14:	00000013          	nop
     a18:	00000013          	nop
     a1c:	00000013          	nop
     a20:	00000013          	nop
     a24:	00000013          	nop
     a28:	00000013          	nop
     a2c:	00000013          	nop
     a30:	00000013          	nop
     a34:	00000013          	nop
     a38:	00000013          	nop
     a3c:	00000013          	nop
     a40:	00000013          	nop
     a44:	00000013          	nop
     a48:	00000013          	nop
     a4c:	00000013          	nop
     a50:	00000013          	nop
     a54:	00000013          	nop
     a58:	00000013          	nop
     a5c:	00000013          	nop
     a60:	00000013          	nop
     a64:	00000013          	nop
     a68:	00000013          	nop
     a6c:	00000013          	nop
     a70:	00000013          	nop
     a74:	00000013          	nop
     a78:	00000013          	nop
     a7c:	00000013          	nop
     a80:	00000013          	nop
     a84:	00000013          	nop
     a88:	00000013          	nop
     a8c:	00000013          	nop
     a90:	00000013          	nop
     a94:	00000013          	nop
     a98:	00000013          	nop
     a9c:	00000013          	nop
     aa0:	00000013          	nop
     aa4:	00000013          	nop
     aa8:	00000013          	nop
     aac:	00000013          	nop
     ab0:	00000013          	nop
     ab4:	00000013          	nop
     ab8:	00000013          	nop
     abc:	00000013          	nop
     ac0:	00000013          	nop
     ac4:	00000013          	nop
     ac8:	00000013          	nop
     acc:	00000013          	nop
     ad0:	00000013          	nop
     ad4:	00000013          	nop
     ad8:	00000013          	nop
     adc:	00000013          	nop
     ae0:	00000013          	nop
     ae4:	00000013          	nop
     ae8:	00000013          	nop
     aec:	00000013          	nop
     af0:	00000013          	nop
     af4:	00000013          	nop
     af8:	00000013          	nop
     afc:	00000013          	nop
     b00:	00000013          	nop
     b04:	00000013          	nop
     b08:	00000013          	nop
     b0c:	00000013          	nop
     b10:	00000013          	nop
     b14:	00000013          	nop
     b18:	00000013          	nop
     b1c:	00000013          	nop
     b20:	00000013          	nop
     b24:	00000013          	nop
     b28:	00000013          	nop
     b2c:	00000013          	nop
     b30:	00000013          	nop
     b34:	00000013          	nop
     b38:	00000013          	nop
     b3c:	00000013          	nop
     b40:	00000013          	nop
     b44:	00000013          	nop
     b48:	00000013          	nop
     b4c:	00000013          	nop
     b50:	00000013          	nop
     b54:	00000013          	nop
     b58:	00000013          	nop
     b5c:	00000013          	nop
     b60:	00000013          	nop
     b64:	00000013          	nop
     b68:	00000013          	nop
     b6c:	00000013          	nop
     b70:	00000013          	nop
     b74:	00000013          	nop
     b78:	00000013          	nop
     b7c:	00000013          	nop
     b80:	00000013          	nop
     b84:	00000013          	nop
     b88:	00000013          	nop
     b8c:	00000013          	nop
     b90:	00000013          	nop
     b94:	00000013          	nop
     b98:	00000013          	nop
     b9c:	00000013          	nop
     ba0:	00000013          	nop
     ba4:	00000013          	nop
     ba8:	00000013          	nop
     bac:	00000013          	nop
     bb0:	00000013          	nop
     bb4:	00000013          	nop
     bb8:	00000013          	nop
     bbc:	00000013          	nop
     bc0:	00000013          	nop
     bc4:	00000013          	nop
     bc8:	00000013          	nop
     bcc:	00000013          	nop
     bd0:	00000013          	nop
     bd4:	00000013          	nop
     bd8:	00000013          	nop
     bdc:	00000013          	nop
     be0:	00000013          	nop
     be4:	00000013          	nop
     be8:	00000013          	nop
     bec:	00000013          	nop
     bf0:	00000013          	nop
     bf4:	00000013          	nop
     bf8:	00000013          	nop
     bfc:	00000013          	nop
     c00:	00000013          	nop
     c04:	00000013          	nop
     c08:	00000013          	nop
     c0c:	00000013          	nop
     c10:	00000013          	nop
     c14:	00000013          	nop
     c18:	00000013          	nop
     c1c:	00000013          	nop
     c20:	00000013          	nop
     c24:	00000013          	nop
     c28:	00000013          	nop
     c2c:	00000013          	nop
     c30:	00000013          	nop
     c34:	00000013          	nop
     c38:	00000013          	nop
     c3c:	00000013          	nop
     c40:	00000013          	nop
     c44:	00000013          	nop
     c48:	00000013          	nop
     c4c:	00000013          	nop
     c50:	00000013          	nop
     c54:	00000013          	nop
     c58:	00000013          	nop
     c5c:	00000013          	nop
     c60:	00000013          	nop
     c64:	00000013          	nop
     c68:	00000013          	nop
     c6c:	00000013          	nop
     c70:	00000013          	nop
     c74:	00000013          	nop
     c78:	00000013          	nop
     c7c:	00000013          	nop
     c80:	00000013          	nop
     c84:	00000013          	nop
     c88:	00000013          	nop
     c8c:	00000013          	nop
     c90:	00000013          	nop
     c94:	00000013          	nop
     c98:	00000013          	nop
     c9c:	00000013          	nop
     ca0:	00000013          	nop
     ca4:	00000013          	nop
     ca8:	00000013          	nop
     cac:	00000013          	nop
     cb0:	00000013          	nop
     cb4:	00000013          	nop
     cb8:	00000013          	nop
     cbc:	00000013          	nop
     cc0:	00000013          	nop
     cc4:	00000013          	nop
     cc8:	00000013          	nop
     ccc:	00000013          	nop
     cd0:	00000013          	nop
     cd4:	00000013          	nop
     cd8:	00000013          	nop
     cdc:	00000013          	nop
     ce0:	00000013          	nop
     ce4:	00000013          	nop
     ce8:	00000013          	nop
     cec:	00000013          	nop
     cf0:	00000013          	nop
     cf4:	00000013          	nop
     cf8:	00000013          	nop
     cfc:	00000013          	nop
     d00:	00000013          	nop
     d04:	00000013          	nop
     d08:	00000013          	nop
     d0c:	00000013          	nop
     d10:	00000013          	nop
     d14:	00000013          	nop
     d18:	00000013          	nop
     d1c:	00000013          	nop
     d20:	00000013          	nop
     d24:	00000013          	nop
     d28:	00000013          	nop
     d2c:	00000013          	nop
     d30:	00000013          	nop
     d34:	00000013          	nop
     d38:	00000013          	nop
     d3c:	00000013          	nop
     d40:	00000013          	nop
     d44:	00000013          	nop
     d48:	00000013          	nop
     d4c:	00000013          	nop
     d50:	00000013          	nop
     d54:	00000013          	nop
     d58:	00000013          	nop
     d5c:	00000013          	nop
     d60:	00000013          	nop
     d64:	00000013          	nop
     d68:	00000013          	nop
     d6c:	00000013          	nop
     d70:	00000013          	nop
     d74:	00000013          	nop
     d78:	00000013          	nop
     d7c:	00000013          	nop
     d80:	00000013          	nop
     d84:	00000013          	nop
     d88:	00000013          	nop
     d8c:	00000013          	nop
     d90:	00000013          	nop
     d94:	00000013          	nop
     d98:	00000013          	nop
     d9c:	00000013          	nop
     da0:	00000013          	nop
     da4:	00000013          	nop
     da8:	00000013          	nop
     dac:	00000013          	nop
     db0:	00000013          	nop
     db4:	00000013          	nop
     db8:	00000013          	nop
     dbc:	00000013          	nop
     dc0:	00000013          	nop
     dc4:	00000013          	nop
     dc8:	00000013          	nop
     dcc:	00000013          	nop
     dd0:	00000013          	nop
     dd4:	00000013          	nop
     dd8:	00000013          	nop
     ddc:	00000013          	nop
     de0:	00000013          	nop
     de4:	00000013          	nop
     de8:	00000013          	nop
     dec:	00000013          	nop
     df0:	00000013          	nop
     df4:	00000013          	nop
     df8:	00000013          	nop
     dfc:	00000013          	nop
     e00:	00000013          	nop
     e04:	00000013          	nop
     e08:	00000013          	nop
     e0c:	00000013          	nop
     e10:	00000013          	nop
     e14:	00000013          	nop
     e18:	00000013          	nop
     e1c:	00000013          	nop
     e20:	00000013          	nop
     e24:	00000013          	nop
     e28:	00000013          	nop
     e2c:	00000013          	nop
     e30:	00000013          	nop
     e34:	00000013          	nop
     e38:	00000013          	nop
     e3c:	00000013          	nop
     e40:	00000013          	nop
     e44:	00000013          	nop
     e48:	00000013          	nop
     e4c:	00000013          	nop
     e50:	00000013          	nop
     e54:	00000013          	nop
     e58:	00000013          	nop
     e5c:	00000013          	nop
     e60:	00000013          	nop
     e64:	00000013          	nop
     e68:	00000013          	nop
     e6c:	00000013          	nop
     e70:	00000013          	nop
     e74:	00000013          	nop
     e78:	00000013          	nop
     e7c:	00000013          	nop
     e80:	00000013          	nop
     e84:	00000013          	nop
     e88:	00000013          	nop
     e8c:	00000013          	nop
     e90:	00000013          	nop
     e94:	00000013          	nop
     e98:	00000013          	nop
     e9c:	00000013          	nop
     ea0:	00000013          	nop
     ea4:	00000013          	nop
     ea8:	00000013          	nop
     eac:	00000013          	nop
     eb0:	00000013          	nop
     eb4:	00000013          	nop
     eb8:	00000013          	nop
     ebc:	00000013          	nop
     ec0:	00000013          	nop
     ec4:	00000013          	nop
     ec8:	00000013          	nop
     ecc:	00000013          	nop
     ed0:	00000013          	nop
     ed4:	00000013          	nop
     ed8:	00000013          	nop
     edc:	00000013          	nop
     ee0:	00000013          	nop
     ee4:	00000013          	nop
     ee8:	00000013          	nop
     eec:	00000013          	nop
     ef0:	00000013          	nop
     ef4:	00000013          	nop
     ef8:	00000013          	nop
     efc:	00000013          	nop
     f00:	00000013          	nop
     f04:	00000013          	nop
     f08:	00000013          	nop
     f0c:	00000013          	nop
     f10:	00000013          	nop
     f14:	00000013          	nop
     f18:	00000013          	nop
     f1c:	00000013          	nop
     f20:	00000013          	nop
     f24:	00000013          	nop
     f28:	00000013          	nop
     f2c:	00000013          	nop
     f30:	00000013          	nop
     f34:	00000013          	nop
     f38:	00000013          	nop
     f3c:	00000013          	nop
     f40:	00000013          	nop
     f44:	00000013          	nop
     f48:	00000013          	nop
     f4c:	00000013          	nop
     f50:	00000013          	nop
     f54:	00000013          	nop
     f58:	00000013          	nop
     f5c:	00000013          	nop
     f60:	00000013          	nop
     f64:	00000013          	nop
     f68:	00000013          	nop
     f6c:	00000013          	nop
     f70:	00000013          	nop
     f74:	00000013          	nop
     f78:	00000013          	nop
     f7c:	00000013          	nop
     f80:	00000013          	nop
     f84:	00000013          	nop
     f88:	00000013          	nop
     f8c:	00000013          	nop
     f90:	00000013          	nop
     f94:	00000013          	nop
     f98:	00000013          	nop
     f9c:	00000013          	nop
     fa0:	00000013          	nop
     fa4:	00000013          	nop
     fa8:	00000013          	nop
     fac:	00000013          	nop
     fb0:	00000013          	nop
     fb4:	00000013          	nop
     fb8:	00000013          	nop
     fbc:	00000013          	nop
     fc0:	00000013          	nop
     fc4:	00000013          	nop
     fc8:	00000013          	nop
     fcc:	00000013          	nop
     fd0:	00000013          	nop
     fd4:	00000013          	nop
     fd8:	00000013          	nop
     fdc:	00000013          	nop
     fe0:	00000013          	nop
     fe4:	00000013          	nop
     fe8:	00000013          	nop
     fec:	00000013          	nop
     ff0:	00000013          	nop
     ff4:	00000013          	nop
     ff8:	00000013          	nop
     ffc:	00000013          	nop
	...
    1ffc:	0000                	unimp
    1ffe:	00158593          	addi	a1,a1,1
    2002:	29b00e93          	li	t4,667
    2006:	00200193          	li	gp,2
    200a:	00002e17          	auipc	t3,0x2
    200e:	ff6e0e13          	addi	t3,t3,-10 # 4000 <begin_signature>
    2012:	00be2423          	sw	a1,8(t3)
    2016:	35d59f63          	bne	a1,t4,2374 <fail>
    201a:	00001137          	lui	sp,0x1
    201e:	23410113          	addi	sp,sp,564 # 1234 <data+0x1134>

00002022 <test_3>:
    2022:	1fe8                	addi	a0,sp,1020
    2024:	00001eb7          	lui	t4,0x1
    2028:	630e8e93          	addi	t4,t4,1584 # 1630 <data+0x1530>
    202c:	00300193          	li	gp,3
    2030:	00002e17          	auipc	t3,0x2
    2034:	fd0e0e13          	addi	t3,t3,-48 # 4000 <begin_signature>
    2038:	00ae2623          	sw	a0,12(t3)
    203c:	33d51c63          	bne	a0,t4,2374 <fail>

00002040 <test_4>:
    2040:	617d                	addi	sp,sp,496
    2042:	0001                	nop
    2044:	00001eb7          	lui	t4,0x1
    2048:	424e8e93          	addi	t4,t4,1060 # 1424 <data+0x1324>
    204c:	00400193          	li	gp,4
    2050:	00002e17          	auipc	t3,0x2
    2054:	fb0e0e13          	addi	t3,t3,-80 # 4000 <begin_signature>
    2058:	002e2823          	sw	sp,16(t3)
    205c:	31d11c63          	bne	sp,t4,2374 <fail>

00002060 <test_5>:
    2060:	7101                	addi	sp,sp,-512
    2062:	0001                	nop
    2064:	00001eb7          	lui	t4,0x1
    2068:	224e8e93          	addi	t4,t4,548 # 1224 <data+0x1124>
    206c:	00500193          	li	gp,5
    2070:	00002e17          	auipc	t3,0x2
    2074:	f90e0e13          	addi	t3,t3,-112 # 4000 <begin_signature>
    2078:	002e2a23          	sw	sp,20(t3)
    207c:	2fd11c63          	bne	sp,t4,2374 <fail>
    2080:	ffffe597          	auipc	a1,0xffffe
    2084:	08058593          	addi	a1,a1,128 # 100 <data>

00002088 <test_6>:
    2088:	41c8                	lw	a0,4(a1)
    208a:	0505                	addi	a0,a0,1
    208c:	c1c8                	sw	a0,4(a1)
    208e:	41d0                	lw	a2,4(a1)
    2090:	fedcceb7          	lui	t4,0xfedcc
    2094:	a99e8e93          	addi	t4,t4,-1383 # fedcba99 <_end+0xfedc7895>
    2098:	00600193          	li	gp,6
    209c:	00002e17          	auipc	t3,0x2
    20a0:	f64e0e13          	addi	t3,t3,-156 # 4000 <begin_signature>
    20a4:	00ce2c23          	sw	a2,24(t3)
    20a8:	2dd61663          	bne	a2,t4,2374 <fail>

000020ac <test_8>:
    20ac:	00106513          	ori	a0,zero,1
    20b0:	1541                	addi	a0,a0,-16
    20b2:	0001                	nop
    20b4:	ff100e93          	li	t4,-15
    20b8:	00800193          	li	gp,8
    20bc:	00002e17          	auipc	t3,0x2
    20c0:	f44e0e13          	addi	t3,t3,-188 # 4000 <begin_signature>
    20c4:	02ae2023          	sw	a0,32(t3)
    20c8:	2bd51663          	bne	a0,t4,2374 <fail>

000020cc <test_9>:
    20cc:	00106793          	ori	a5,zero,1
    20d0:	57c1                	li	a5,-16
    20d2:	0001                	nop
    20d4:	ff000e93          	li	t4,-16
    20d8:	00900193          	li	gp,9
    20dc:	00002e17          	auipc	t3,0x2
    20e0:	f24e0e13          	addi	t3,t3,-220 # 4000 <begin_signature>
    20e4:	02fe2223          	sw	a5,36(t3)
    20e8:	29d79663          	bne	a5,t4,2374 <fail>

000020ec <test_11>:
    20ec:	7405                	lui	s0,0xfffe1
    20ee:	8431                	srai	s0,s0,0xc
    20f0:	fe100e93          	li	t4,-31
    20f4:	00b00193          	li	gp,11
    20f8:	00002e17          	auipc	t3,0x2
    20fc:	f08e0e13          	addi	t3,t3,-248 # 4000 <begin_signature>
    2100:	028e2623          	sw	s0,44(t3)
    2104:	27d41863          	bne	s0,t4,2374 <fail>

00002108 <test_12>:
    2108:	7405                	lui	s0,0xfffe1
    210a:	8031                	srli	s0,s0,0xc
    210c:	00100eb7          	lui	t4,0x100
    2110:	fe1e8e93          	addi	t4,t4,-31 # fffe1 <_end+0xfbddd>
    2114:	00c00193          	li	gp,12
    2118:	00002e17          	auipc	t3,0x2
    211c:	ee8e0e13          	addi	t3,t3,-280 # 4000 <begin_signature>
    2120:	028e2823          	sw	s0,48(t3)
    2124:	25d41863          	bne	s0,t4,2374 <fail>

00002128 <test_14>:
    2128:	5479                	li	s0,-2
    212a:	983d                	andi	s0,s0,-17
    212c:	fee00e93          	li	t4,-18
    2130:	00e00193          	li	gp,14
    2134:	00002e17          	auipc	t3,0x2
    2138:	ecce0e13          	addi	t3,t3,-308 # 4000 <begin_signature>
    213c:	028e2c23          	sw	s0,56(t3)
    2140:	23d41a63          	bne	s0,t4,2374 <fail>

00002144 <test_15>:
    2144:	44d1                	li	s1,20
    2146:	4519                	li	a0,6
    2148:	8c89                	sub	s1,s1,a0
    214a:	0001                	nop
    214c:	00e00e93          	li	t4,14
    2150:	00f00193          	li	gp,15
    2154:	00002e17          	auipc	t3,0x2
    2158:	eace0e13          	addi	t3,t3,-340 # 4000 <begin_signature>
    215c:	029e2e23          	sw	s1,60(t3)
    2160:	21d49a63          	bne	s1,t4,2374 <fail>

00002164 <test_16>:
    2164:	44d1                	li	s1,20
    2166:	4519                	li	a0,6
    2168:	8ca9                	xor	s1,s1,a0
    216a:	0001                	nop
    216c:	01200e93          	li	t4,18
    2170:	01000193          	li	gp,16
    2174:	00002e17          	auipc	t3,0x2
    2178:	e8ce0e13          	addi	t3,t3,-372 # 4000 <begin_signature>
    217c:	049e2023          	sw	s1,64(t3)
    2180:	1fd49a63          	bne	s1,t4,2374 <fail>

00002184 <test_17>:
    2184:	44d1                	li	s1,20
    2186:	4519                	li	a0,6
    2188:	8cc9                	or	s1,s1,a0
    218a:	0001                	nop
    218c:	01600e93          	li	t4,22
    2190:	01100193          	li	gp,17
    2194:	00002e17          	auipc	t3,0x2
    2198:	e6ce0e13          	addi	t3,t3,-404 # 4000 <begin_signature>
    219c:	049e2223          	sw	s1,68(t3)
    21a0:	1dd49a63          	bne	s1,t4,2374 <fail>

000021a4 <test_18>:
    21a4:	44d1                	li	s1,20
    21a6:	4519                	li	a0,6
    21a8:	8ce9                	and	s1,s1,a0
    21aa:	0001                	nop
    21ac:	00400e93          	li	t4,4
    21b0:	01200193          	li	gp,18
    21b4:	00002e17          	auipc	t3,0x2
    21b8:	e4ce0e13          	addi	t3,t3,-436 # 4000 <begin_signature>
    21bc:	049e2423          	sw	s1,72(t3)
    21c0:	1bd49a63          	bne	s1,t4,2374 <fail>

000021c4 <test_21>:
    21c4:	00001437          	lui	s0,0x1
    21c8:	23440413          	addi	s0,s0,564 # 1234 <data+0x1134>
    21cc:	0412                	slli	s0,s0,0x4
    21ce:	0001                	nop
    21d0:	00012eb7          	lui	t4,0x12
    21d4:	340e8e93          	addi	t4,t4,832 # 12340 <_end+0xe13c>
    21d8:	01500193          	li	gp,21
    21dc:	00002e17          	auipc	t3,0x2
    21e0:	e24e0e13          	addi	t3,t3,-476 # 4000 <begin_signature>
    21e4:	048e2a23          	sw	s0,84(t3)
    21e8:	19d41663          	bne	s0,t4,2374 <fail>

000021ec <test_30>:
    21ec:	4081                	li	ra,0
    21ee:	a011                	j	21f2 <test_30+0x6>
    21f0:	a011                	j	21f4 <test_30+0x8>
    21f2:	a011                	j	21f6 <test_30+0xa>
    21f4:	a241                	j	2374 <fail>
    21f6:	0001                	nop
    21f8:	00000e93          	li	t4,0
    21fc:	01e00193          	li	gp,30
    2200:	00002e17          	auipc	t3,0x2
    2204:	e00e0e13          	addi	t3,t3,-512 # 4000 <begin_signature>
    2208:	061e2c23          	sw	ra,120(t3)
    220c:	17d09463          	bne	ra,t4,2374 <fail>

00002210 <test_31>:
    2210:	4501                	li	a0,0
    2212:	c111                	beqz	a0,2216 <test_31+0x6>
    2214:	a011                	j	2218 <test_31+0x8>
    2216:	a011                	j	221a <test_31+0xa>
    2218:	aab1                	j	2374 <fail>
    221a:	0001                	nop
    221c:	00000e93          	li	t4,0
    2220:	01f00193          	li	gp,31
    2224:	00002e17          	auipc	t3,0x2
    2228:	ddce0e13          	addi	t3,t3,-548 # 4000 <begin_signature>
    222c:	060e2e23          	sw	zero,124(t3)
    2230:	15d01263          	bne	zero,t4,2374 <fail>

00002234 <test_32>:
    2234:	4505                	li	a0,1
    2236:	e111                	bnez	a0,223a <test_32+0x6>
    2238:	a011                	j	223c <test_32+0x8>
    223a:	a011                	j	223e <test_32+0xa>
    223c:	aa25                	j	2374 <fail>
    223e:	0001                	nop
    2240:	00000e93          	li	t4,0
    2244:	02000193          	li	gp,32
    2248:	00002e17          	auipc	t3,0x2
    224c:	db8e0e13          	addi	t3,t3,-584 # 4000 <begin_signature>
    2250:	080e2023          	sw	zero,128(t3)
    2254:	13d01063          	bne	zero,t4,2374 <fail>

00002258 <test_33>:
    2258:	4505                	li	a0,1
    225a:	c111                	beqz	a0,225e <test_33+0x6>
    225c:	a011                	j	2260 <test_33+0x8>
    225e:	aa19                	j	2374 <fail>
    2260:	00000e93          	li	t4,0
    2264:	02100193          	li	gp,33
    2268:	00002e17          	auipc	t3,0x2
    226c:	d98e0e13          	addi	t3,t3,-616 # 4000 <begin_signature>
    2270:	080e2223          	sw	zero,132(t3)
    2274:	11d01063          	bne	zero,t4,2374 <fail>

00002278 <test_34>:
    2278:	4501                	li	a0,0
    227a:	e111                	bnez	a0,227e <test_34+0x6>
    227c:	a011                	j	2280 <test_34+0x8>
    227e:	a8dd                	j	2374 <fail>
    2280:	00000e93          	li	t4,0
    2284:	02200193          	li	gp,34
    2288:	00002e17          	auipc	t3,0x2
    228c:	d78e0e13          	addi	t3,t3,-648 # 4000 <begin_signature>
    2290:	080e2423          	sw	zero,136(t3)
    2294:	0fd01063          	bne	zero,t4,2374 <fail>

00002298 <test_35>:
    2298:	00000297          	auipc	t0,0x0
    229c:	00e28293          	addi	t0,t0,14 # 22a6 <test_35+0xe>
    22a0:	4081                	li	ra,0
    22a2:	8282                	jr	t0
    22a4:	a011                	j	22a8 <test_35+0x10>
    22a6:	a011                	j	22aa <test_35+0x12>
    22a8:	a0f1                	j	2374 <fail>
    22aa:	0001                	nop
    22ac:	00000e93          	li	t4,0
    22b0:	02300193          	li	gp,35
    22b4:	00002e17          	auipc	t3,0x2
    22b8:	d4ce0e13          	addi	t3,t3,-692 # 4000 <begin_signature>
    22bc:	081e2623          	sw	ra,140(t3)
    22c0:	0bd09a63          	bne	ra,t4,2374 <fail>

000022c4 <test_36>:
    22c4:	00000297          	auipc	t0,0x0
    22c8:	00e28293          	addi	t0,t0,14 # 22d2 <test_36+0xe>
    22cc:	4081                	li	ra,0
    22ce:	9282                	jalr	t0
    22d0:	a011                	j	22d4 <test_36+0x10>
    22d2:	a011                	j	22d6 <test_36+0x12>
    22d4:	a045                	j	2374 <fail>
    22d6:	405080b3          	sub	ra,ra,t0
    22da:	0001                	nop
    22dc:	ffe00e93          	li	t4,-2
    22e0:	02400193          	li	gp,36
    22e4:	00002e17          	auipc	t3,0x2
    22e8:	d1ce0e13          	addi	t3,t3,-740 # 4000 <begin_signature>
    22ec:	081e2823          	sw	ra,144(t3)
    22f0:	09d09263          	bne	ra,t4,2374 <fail>

000022f4 <test_37>:
    22f4:	00000297          	auipc	t0,0x0
    22f8:	00e28293          	addi	t0,t0,14 # 2302 <test_37+0xe>
    22fc:	4081                	li	ra,0
    22fe:	2011                	jal	2302 <test_37+0xe>
    2300:	a011                	j	2304 <test_37+0x10>
    2302:	a011                	j	2306 <test_37+0x12>
    2304:	a885                	j	2374 <fail>
    2306:	405080b3          	sub	ra,ra,t0
    230a:	0001                	nop
    230c:	ffe00e93          	li	t4,-2
    2310:	02500193          	li	gp,37
    2314:	00002e17          	auipc	t3,0x2
    2318:	cece0e13          	addi	t3,t3,-788 # 4000 <begin_signature>
    231c:	081e2a23          	sw	ra,148(t3)
    2320:	05d09a63          	bne	ra,t4,2374 <fail>
    2324:	ffffe117          	auipc	sp,0xffffe
    2328:	ddc10113          	addi	sp,sp,-548 # 100 <data>

0000232c <test_40>:
    232c:	4532                	lw	a0,12(sp)
    232e:	0505                	addi	a0,a0,1
    2330:	c62a                	sw	a0,12(sp)
    2332:	4632                	lw	a2,12(sp)
    2334:	fedcceb7          	lui	t4,0xfedcc
    2338:	a99e8e93          	addi	t4,t4,-1383 # fedcba99 <_end+0xfedc7895>
    233c:	02800193          	li	gp,40
    2340:	00002e17          	auipc	t3,0x2
    2344:	cc0e0e13          	addi	t3,t3,-832 # 4000 <begin_signature>
    2348:	0ace2023          	sw	a2,160(t3)
    234c:	03d61463          	bne	a2,t4,2374 <fail>

00002350 <test_42>:
    2350:	12300513          	li	a0,291
    2354:	82aa                	mv	t0,a0
    2356:	92aa                	add	t0,t0,a0
    2358:	24600e93          	li	t4,582
    235c:	02a00193          	li	gp,42
    2360:	00002e17          	auipc	t3,0x2
    2364:	ca0e0e13          	addi	t3,t3,-864 # 4000 <begin_signature>
    2368:	0a5e2423          	sw	t0,168(t3)
    236c:	01d29463          	bne	t0,t4,2374 <fail>
    2370:	00301d63          	bne	zero,gp,238a <pass>

00002374 <fail>:
    2374:	0ff0000f          	fence
    2378:	4185                	li	gp,1
    237a:	00002e17          	auipc	t3,0x2
    237e:	c86e0e13          	addi	t3,t3,-890 # 4000 <begin_signature>
    2382:	003e2023          	sw	gp,0(t3)
    2386:	00000073          	ecall

0000238a <pass>:
    238a:	0ff0000f          	fence
    238e:	4185                	li	gp,1
    2390:	00002e17          	auipc	t3,0x2
    2394:	c70e0e13          	addi	t3,t3,-912 # 4000 <begin_signature>
    2398:	003e2023          	sw	gp,0(t3)
    239c:	00000073          	ecall

000023a0 <end_testcode>:
	...

Disassembly of section .tohost:

00003000 <tohost>:
	...

00003100 <fromhost>:
	...
