
/home/ubuntu/Downloads/NF5_test/riscv-compliance-master/work/rv32mi/ma_addr.elf：     文件格式 elf32-littleriscv


Disassembly of section .text.init:

00000000 <_start>:
   0:	04c0006f          	j	4c <reset_vector>

00000004 <trap_vector>:
   4:	34202f73          	csrr	t5,mcause
   8:	00800f93          	li	t6,8
   c:	03ff0a63          	beq	t5,t6,40 <write_tohost>
  10:	00900f93          	li	t6,9
  14:	03ff0663          	beq	t5,t6,40 <write_tohost>
  18:	00b00f93          	li	t6,11
  1c:	03ff0263          	beq	t5,t6,40 <write_tohost>
  20:	00000f17          	auipc	t5,0x0
  24:	2e8f0f13          	addi	t5,t5,744 # 308 <mtvec_handler>
  28:	000f0463          	beqz	t5,30 <trap_vector+0x2c>
  2c:	000f0067          	jr	t5
  30:	34202f73          	csrr	t5,mcause
  34:	000f5463          	bgez	t5,3c <handle_exception>
  38:	0040006f          	j	3c <handle_exception>

0000003c <handle_exception>:
  3c:	5391e193          	ori	gp,gp,1337

00000040 <write_tohost>:
  40:	00001f17          	auipc	t5,0x1
  44:	fc3f2023          	sw	gp,-64(t5) # 1000 <tohost>
  48:	ff9ff06f          	j	40 <write_tohost>

0000004c <reset_vector>:
  4c:	f1402573          	csrr	a0,mhartid
  50:	00051063          	bnez	a0,50 <reset_vector+0x4>
  54:	00000297          	auipc	t0,0x0
  58:	01028293          	addi	t0,t0,16 # 64 <reset_vector+0x18>
  5c:	30529073          	csrw	mtvec,t0
  60:	18005073          	csrwi	satp,0
  64:	00000297          	auipc	t0,0x0
  68:	01c28293          	addi	t0,t0,28 # 80 <reset_vector+0x34>
  6c:	30529073          	csrw	mtvec,t0
  70:	fff00293          	li	t0,-1
  74:	3b029073          	csrw	pmpaddr0,t0
  78:	01f00293          	li	t0,31
  7c:	3a029073          	csrw	pmpcfg0,t0
  80:	00000297          	auipc	t0,0x0
  84:	01828293          	addi	t0,t0,24 # 98 <reset_vector+0x4c>
  88:	30529073          	csrw	mtvec,t0
  8c:	30205073          	csrwi	medeleg,0
  90:	30305073          	csrwi	mideleg,0
  94:	30405073          	csrwi	mie,0
  98:	00000193          	li	gp,0
  9c:	00000297          	auipc	t0,0x0
  a0:	f6828293          	addi	t0,t0,-152 # 4 <trap_vector>
  a4:	30529073          	csrw	mtvec,t0
  a8:	00100513          	li	a0,1
  ac:	01f51513          	slli	a0,a0,0x1f
  b0:	00054e63          	bltz	a0,cc <reset_vector+0x80>
  b4:	0ff0000f          	fence
  b8:	00100193          	li	gp,1
  bc:	00002e17          	auipc	t3,0x2
  c0:	054e0e13          	addi	t3,t3,84 # 2110 <begin_signature>
  c4:	003e2023          	sw	gp,0(t3)
  c8:	00000073          	ecall
  cc:	00000297          	auipc	t0,0x0
  d0:	f3428293          	addi	t0,t0,-204 # 0 <_start>
  d4:	00028e63          	beqz	t0,f0 <reset_vector+0xa4>
  d8:	10529073          	csrw	stvec,t0
  dc:	0000b2b7          	lui	t0,0xb
  e0:	10928293          	addi	t0,t0,265 # b109 <_end+0x8e05>
  e4:	30229073          	csrw	medeleg,t0
  e8:	30202373          	csrr	t1,medeleg
  ec:	f46298e3          	bne	t0,t1,3c <handle_exception>
  f0:	30005073          	csrwi	mstatus,0
  f4:	00002537          	lui	a0,0x2
  f8:	80050513          	addi	a0,a0,-2048 # 1800 <fromhost+0x700>
  fc:	30052073          	csrs	mstatus,a0
 100:	00000297          	auipc	t0,0x0
 104:	01428293          	addi	t0,t0,20 # 114 <begin_testcode>
 108:	34129073          	csrw	mepc,t0
 10c:	f1402573          	csrr	a0,mhartid
 110:	30200073          	mret

00000114 <begin_testcode>:
 114:	00002417          	auipc	s0,0x2
 118:	eec40413          	addi	s0,s0,-276 # 2000 <data>
 11c:	00400493          	li	s1,4
 120:	00200193          	li	gp,2
 124:	00002e17          	auipc	t3,0x2
 128:	fece0e13          	addi	t3,t3,-20 # 2110 <begin_signature>
 12c:	003e2423          	sw	gp,8(t3)
 130:	00000397          	auipc	t2,0x0
 134:	01c38393          	addi	t2,t2,28 # 14c <begin_testcode+0x38>
 138:	00140313          	addi	t1,s0,1
 13c:	00141303          	lh	t1,1(s0)
 140:	ffffc3b7          	lui	t2,0xffffc
 144:	bcc38393          	addi	t2,t2,-1076 # ffffbbcc <_end+0xffff98c8>
 148:	18731663          	bne	t1,t2,2d4 <fail>
 14c:	00300193          	li	gp,3
 150:	00002e17          	auipc	t3,0x2
 154:	fc0e0e13          	addi	t3,t3,-64 # 2110 <begin_signature>
 158:	003e2623          	sw	gp,12(t3)
 15c:	00000397          	auipc	t2,0x0
 160:	01c38393          	addi	t2,t2,28 # 178 <begin_testcode+0x64>
 164:	00140313          	addi	t1,s0,1
 168:	00145303          	lhu	t1,1(s0)
 16c:	0000c3b7          	lui	t2,0xc
 170:	bcc38393          	addi	t2,t2,-1076 # bbcc <_end+0x98c8>
 174:	16731063          	bne	t1,t2,2d4 <fail>
 178:	00400193          	li	gp,4
 17c:	00002e17          	auipc	t3,0x2
 180:	f94e0e13          	addi	t3,t3,-108 # 2110 <begin_signature>
 184:	003e2823          	sw	gp,16(t3)
 188:	00000397          	auipc	t2,0x0
 18c:	01c38393          	addi	t2,t2,28 # 1a4 <begin_testcode+0x90>
 190:	00140313          	addi	t1,s0,1
 194:	00142303          	lw	t1,1(s0)
 198:	99aac3b7          	lui	t2,0x99aac
 19c:	bcc38393          	addi	t2,t2,-1076 # 99aabbcc <_end+0x99aa98c8>
 1a0:	12731a63          	bne	t1,t2,2d4 <fail>
 1a4:	00500193          	li	gp,5
 1a8:	00002e17          	auipc	t3,0x2
 1ac:	f68e0e13          	addi	t3,t3,-152 # 2110 <begin_signature>
 1b0:	003e2a23          	sw	gp,20(t3)
 1b4:	00000397          	auipc	t2,0x0
 1b8:	01c38393          	addi	t2,t2,28 # 1d0 <begin_testcode+0xbc>
 1bc:	00240313          	addi	t1,s0,2
 1c0:	00242303          	lw	t1,2(s0)
 1c4:	8899b3b7          	lui	t2,0x8899b
 1c8:	abb38393          	addi	t2,t2,-1349 # 8899aabb <_end+0x889987b7>
 1cc:	10731463          	bne	t1,t2,2d4 <fail>
 1d0:	00600193          	li	gp,6
 1d4:	00002e17          	auipc	t3,0x2
 1d8:	f3ce0e13          	addi	t3,t3,-196 # 2110 <begin_signature>
 1dc:	003e2c23          	sw	gp,24(t3)
 1e0:	00000397          	auipc	t2,0x0
 1e4:	01c38393          	addi	t2,t2,28 # 1fc <begin_testcode+0xe8>
 1e8:	00340313          	addi	t1,s0,3
 1ec:	00342303          	lw	t1,3(s0)
 1f0:	7788a3b7          	lui	t2,0x7788a
 1f4:	9aa38393          	addi	t2,t2,-1622 # 778899aa <_end+0x778876a6>
 1f8:	0c731e63          	bne	t1,t2,2d4 <fail>
 1fc:	00600493          	li	s1,6
 200:	01600193          	li	gp,22
 204:	00000397          	auipc	t2,0x0
 208:	03038393          	addi	t2,t2,48 # 234 <begin_testcode+0x120>
 20c:	00140313          	addi	t1,s0,1
 210:	000410a3          	sh	zero,1(s0)
 214:	00040303          	lb	t1,0(s0)
 218:	0a030e63          	beqz	t1,2d4 <fail>
 21c:	00340303          	lb	t1,3(s0)
 220:	0a030a63          	beqz	t1,2d4 <fail>
 224:	00140303          	lb	t1,1(s0)
 228:	0a031663          	bnez	t1,2d4 <fail>
 22c:	00240303          	lb	t1,2(s0)
 230:	0a031263          	bnez	t1,2d4 <fail>
 234:	01700193          	li	gp,23
 238:	00000397          	auipc	t2,0x0
 23c:	03038393          	addi	t2,t2,48 # 268 <begin_testcode+0x154>
 240:	00540313          	addi	t1,s0,5
 244:	000422a3          	sw	zero,5(s0)
 248:	00440303          	lb	t1,4(s0)
 24c:	08030463          	beqz	t1,2d4 <fail>
 250:	00940303          	lb	t1,9(s0)
 254:	08030063          	beqz	t1,2d4 <fail>
 258:	00540303          	lb	t1,5(s0)
 25c:	06031c63          	bnez	t1,2d4 <fail>
 260:	00840303          	lb	t1,8(s0)
 264:	06031863          	bnez	t1,2d4 <fail>
 268:	01800193          	li	gp,24
 26c:	00000397          	auipc	t2,0x0
 270:	03038393          	addi	t2,t2,48 # 29c <begin_testcode+0x188>
 274:	00a40313          	addi	t1,s0,10
 278:	00042523          	sw	zero,10(s0)
 27c:	00940303          	lb	t1,9(s0)
 280:	04030a63          	beqz	t1,2d4 <fail>
 284:	00e40303          	lb	t1,14(s0)
 288:	04030663          	beqz	t1,2d4 <fail>
 28c:	00a40303          	lb	t1,10(s0)
 290:	04031263          	bnez	t1,2d4 <fail>
 294:	00d40303          	lb	t1,13(s0)
 298:	02031e63          	bnez	t1,2d4 <fail>
 29c:	01900193          	li	gp,25
 2a0:	00000397          	auipc	t2,0x0
 2a4:	03038393          	addi	t2,t2,48 # 2d0 <begin_testcode+0x1bc>
 2a8:	00f40313          	addi	t1,s0,15
 2ac:	000427a3          	sw	zero,15(s0)
 2b0:	00e40303          	lb	t1,14(s0)
 2b4:	02030063          	beqz	t1,2d4 <fail>
 2b8:	01340303          	lb	t1,19(s0)
 2bc:	00030c63          	beqz	t1,2d4 <fail>
 2c0:	00f40303          	lb	t1,15(s0)
 2c4:	00031863          	bnez	t1,2d4 <fail>
 2c8:	01240303          	lb	t1,18(s0)
 2cc:	00031463          	bnez	t1,2d4 <fail>
 2d0:	00301e63          	bne	zero,gp,2ec <pass>

000002d4 <fail>:
 2d4:	0ff0000f          	fence
 2d8:	00100193          	li	gp,1
 2dc:	00002e17          	auipc	t3,0x2
 2e0:	e34e0e13          	addi	t3,t3,-460 # 2110 <begin_signature>
 2e4:	003e2023          	sw	gp,0(t3)
 2e8:	00000073          	ecall

000002ec <pass>:
 2ec:	0ff0000f          	fence
 2f0:	00100193          	li	gp,1
 2f4:	00002e17          	auipc	t3,0x2
 2f8:	e1ce0e13          	addi	t3,t3,-484 # 2110 <begin_signature>
 2fc:	003e2023          	sw	gp,0(t3)
 300:	00000073          	ecall
 304:	00000013          	nop

00000308 <mtvec_handler>:
 308:	342022f3          	csrr	t0,mcause
 30c:	fc9294e3          	bne	t0,s1,2d4 <fail>
 310:	343022f3          	csrr	t0,mbadaddr
 314:	fc6290e3          	bne	t0,t1,2d4 <fail>
 318:	00028283          	lb	t0,0(t0)
 31c:	fa028ce3          	beqz	t0,2d4 <fail>
 320:	34139073          	csrw	mepc,t2
 324:	30200073          	mret

00000328 <end_testcode>:
 328:	c0001073          	unimp
	...

Disassembly of section .tohost:

00001000 <tohost>:
	...

00001100 <fromhost>:
	...
