
/home/ubuntu/Desktop/riscv-compliance-master/work/rv32ud/fclass.elf：     文件格式 elf32-littleriscv


Disassembly of section .text.init:

80000000 <_start>:
80000000:	04c0006f          	j	8000004c <reset_vector>

80000004 <trap_vector>:
80000004:	34202f73          	csrr	t5,mcause
80000008:	00800f93          	li	t6,8
8000000c:	03ff0a63          	beq	t5,t6,80000040 <write_tohost>
80000010:	00900f93          	li	t6,9
80000014:	03ff0663          	beq	t5,t6,80000040 <write_tohost>
80000018:	00b00f93          	li	t6,11
8000001c:	03ff0263          	beq	t5,t6,80000040 <write_tohost>
80000020:	80000f17          	auipc	t5,0x80000
80000024:	fe0f0f13          	addi	t5,t5,-32 # 0 <_start-0x80000000>
80000028:	000f0463          	beqz	t5,80000030 <trap_vector+0x2c>
8000002c:	000f0067          	jr	t5
80000030:	34202f73          	csrr	t5,mcause
80000034:	000f5463          	bgez	t5,8000003c <handle_exception>
80000038:	0040006f          	j	8000003c <handle_exception>

8000003c <handle_exception>:
8000003c:	5391e193          	ori	gp,gp,1337

80000040 <write_tohost>:
80000040:	00001f17          	auipc	t5,0x1
80000044:	fc3f2023          	sw	gp,-64(t5) # 80001000 <tohost>
80000048:	ff9ff06f          	j	80000040 <write_tohost>

8000004c <reset_vector>:
8000004c:	f1402573          	csrr	a0,mhartid
80000050:	00051063          	bnez	a0,80000050 <reset_vector+0x4>
80000054:	00000297          	auipc	t0,0x0
80000058:	01028293          	addi	t0,t0,16 # 80000064 <reset_vector+0x18>
8000005c:	30529073          	csrw	mtvec,t0
80000060:	18005073          	csrwi	satp,0
80000064:	00000297          	auipc	t0,0x0
80000068:	01c28293          	addi	t0,t0,28 # 80000080 <reset_vector+0x34>
8000006c:	30529073          	csrw	mtvec,t0
80000070:	fff00293          	li	t0,-1
80000074:	3b029073          	csrw	pmpaddr0,t0
80000078:	01f00293          	li	t0,31
8000007c:	3a029073          	csrw	pmpcfg0,t0
80000080:	00000297          	auipc	t0,0x0
80000084:	01828293          	addi	t0,t0,24 # 80000098 <reset_vector+0x4c>
80000088:	30529073          	csrw	mtvec,t0
8000008c:	30205073          	csrwi	medeleg,0
80000090:	30305073          	csrwi	mideleg,0
80000094:	30405073          	csrwi	mie,0
80000098:	00000193          	li	gp,0
8000009c:	00000297          	auipc	t0,0x0
800000a0:	f6828293          	addi	t0,t0,-152 # 80000004 <trap_vector>
800000a4:	30529073          	csrw	mtvec,t0
800000a8:	00100513          	li	a0,1
800000ac:	01f51513          	slli	a0,a0,0x1f
800000b0:	00054e63          	bltz	a0,800000cc <reset_vector+0x80>
800000b4:	0ff0000f          	fence
800000b8:	00100193          	li	gp,1
800000bc:	00002e17          	auipc	t3,0x2
800000c0:	f94e0e13          	addi	t3,t3,-108 # 80002050 <begin_signature>
800000c4:	003e2023          	sw	gp,0(t3)
800000c8:	00000073          	ecall
800000cc:	80000297          	auipc	t0,0x80000
800000d0:	f3428293          	addi	t0,t0,-204 # 0 <_start-0x80000000>
800000d4:	00028e63          	beqz	t0,800000f0 <reset_vector+0xa4>
800000d8:	10529073          	csrw	stvec,t0
800000dc:	0000b2b7          	lui	t0,0xb
800000e0:	10928293          	addi	t0,t0,265 # b109 <_start-0x7fff4ef7>
800000e4:	30229073          	csrw	medeleg,t0
800000e8:	30202373          	csrr	t1,medeleg
800000ec:	f46298e3          	bne	t0,t1,8000003c <handle_exception>
800000f0:	30005073          	csrwi	mstatus,0
800000f4:	00002537          	lui	a0,0x2
800000f8:	30052073          	csrs	mstatus,a0
800000fc:	00305073          	csrwi	fcsr,0
80000100:	00000297          	auipc	t0,0x0
80000104:	01428293          	addi	t0,t0,20 # 80000114 <begin_testcode>
80000108:	34129073          	csrw	mepc,t0
8000010c:	f1402573          	csrr	a0,mhartid
80000110:	30200073          	mret

80000114 <begin_testcode>:
80000114:	00002517          	auipc	a0,0x2
80000118:	eec50513          	addi	a0,a0,-276 # 80002000 <test_2_data>
8000011c:	00053507          	fld	fa0,0(a0)
80000120:	e2051553          	fclass.d	a0,fa0
80000124:	00100e93          	li	t4,1
80000128:	00200193          	li	gp,2
8000012c:	00002e17          	auipc	t3,0x2
80000130:	f24e0e13          	addi	t3,t3,-220 # 80002050 <begin_signature>
80000134:	00ae2423          	sw	a0,8(t3)
80000138:	19d51063          	bne	a0,t4,800002b8 <fail>

8000013c <test_3>:
8000013c:	00002517          	auipc	a0,0x2
80000140:	ecc50513          	addi	a0,a0,-308 # 80002008 <test_3_data>
80000144:	00053507          	fld	fa0,0(a0)
80000148:	e2051553          	fclass.d	a0,fa0
8000014c:	00200e93          	li	t4,2
80000150:	00300193          	li	gp,3
80000154:	00002e17          	auipc	t3,0x2
80000158:	efce0e13          	addi	t3,t3,-260 # 80002050 <begin_signature>
8000015c:	00ae2623          	sw	a0,12(t3)
80000160:	15d51c63          	bne	a0,t4,800002b8 <fail>

80000164 <test_4>:
80000164:	00002517          	auipc	a0,0x2
80000168:	eac50513          	addi	a0,a0,-340 # 80002010 <test_4_data>
8000016c:	00053507          	fld	fa0,0(a0)
80000170:	e2051553          	fclass.d	a0,fa0
80000174:	00400e93          	li	t4,4
80000178:	00400193          	li	gp,4
8000017c:	00002e17          	auipc	t3,0x2
80000180:	ed4e0e13          	addi	t3,t3,-300 # 80002050 <begin_signature>
80000184:	00ae2823          	sw	a0,16(t3)
80000188:	13d51863          	bne	a0,t4,800002b8 <fail>

8000018c <test_5>:
8000018c:	00002517          	auipc	a0,0x2
80000190:	e8c50513          	addi	a0,a0,-372 # 80002018 <test_5_data>
80000194:	00053507          	fld	fa0,0(a0)
80000198:	e2051553          	fclass.d	a0,fa0
8000019c:	00800e93          	li	t4,8
800001a0:	00500193          	li	gp,5
800001a4:	00002e17          	auipc	t3,0x2
800001a8:	eace0e13          	addi	t3,t3,-340 # 80002050 <begin_signature>
800001ac:	00ae2a23          	sw	a0,20(t3)
800001b0:	11d51463          	bne	a0,t4,800002b8 <fail>

800001b4 <test_6>:
800001b4:	00002517          	auipc	a0,0x2
800001b8:	e6c50513          	addi	a0,a0,-404 # 80002020 <test_6_data>
800001bc:	00053507          	fld	fa0,0(a0)
800001c0:	e2051553          	fclass.d	a0,fa0
800001c4:	01000e93          	li	t4,16
800001c8:	00600193          	li	gp,6
800001cc:	00002e17          	auipc	t3,0x2
800001d0:	e84e0e13          	addi	t3,t3,-380 # 80002050 <begin_signature>
800001d4:	00ae2c23          	sw	a0,24(t3)
800001d8:	0fd51063          	bne	a0,t4,800002b8 <fail>

800001dc <test_7>:
800001dc:	00002517          	auipc	a0,0x2
800001e0:	e4c50513          	addi	a0,a0,-436 # 80002028 <test_7_data>
800001e4:	00053507          	fld	fa0,0(a0)
800001e8:	e2051553          	fclass.d	a0,fa0
800001ec:	02000e93          	li	t4,32
800001f0:	00700193          	li	gp,7
800001f4:	00002e17          	auipc	t3,0x2
800001f8:	e5ce0e13          	addi	t3,t3,-420 # 80002050 <begin_signature>
800001fc:	00ae2e23          	sw	a0,28(t3)
80000200:	0bd51c63          	bne	a0,t4,800002b8 <fail>

80000204 <test_8>:
80000204:	00002517          	auipc	a0,0x2
80000208:	e2c50513          	addi	a0,a0,-468 # 80002030 <test_8_data>
8000020c:	00053507          	fld	fa0,0(a0)
80000210:	e2051553          	fclass.d	a0,fa0
80000214:	04000e93          	li	t4,64
80000218:	00800193          	li	gp,8
8000021c:	00002e17          	auipc	t3,0x2
80000220:	e34e0e13          	addi	t3,t3,-460 # 80002050 <begin_signature>
80000224:	02ae2023          	sw	a0,32(t3)
80000228:	09d51863          	bne	a0,t4,800002b8 <fail>

8000022c <test_9>:
8000022c:	00002517          	auipc	a0,0x2
80000230:	e0c50513          	addi	a0,a0,-500 # 80002038 <test_9_data>
80000234:	00053507          	fld	fa0,0(a0)
80000238:	e2051553          	fclass.d	a0,fa0
8000023c:	08000e93          	li	t4,128
80000240:	00900193          	li	gp,9
80000244:	00002e17          	auipc	t3,0x2
80000248:	e0ce0e13          	addi	t3,t3,-500 # 80002050 <begin_signature>
8000024c:	02ae2223          	sw	a0,36(t3)
80000250:	07d51463          	bne	a0,t4,800002b8 <fail>

80000254 <test_10>:
80000254:	00002517          	auipc	a0,0x2
80000258:	dec50513          	addi	a0,a0,-532 # 80002040 <test_10_data>
8000025c:	00053507          	fld	fa0,0(a0)
80000260:	e2051553          	fclass.d	a0,fa0
80000264:	10000e93          	li	t4,256
80000268:	00a00193          	li	gp,10
8000026c:	00002e17          	auipc	t3,0x2
80000270:	de4e0e13          	addi	t3,t3,-540 # 80002050 <begin_signature>
80000274:	02ae2423          	sw	a0,40(t3)
80000278:	05d51063          	bne	a0,t4,800002b8 <fail>

8000027c <test_11>:
8000027c:	00002517          	auipc	a0,0x2
80000280:	dcc50513          	addi	a0,a0,-564 # 80002048 <test_11_data>
80000284:	00053507          	fld	fa0,0(a0)
80000288:	e2051553          	fclass.d	a0,fa0
8000028c:	20000e93          	li	t4,512
80000290:	00b00193          	li	gp,11
80000294:	00002e17          	auipc	t3,0x2
80000298:	dbce0e13          	addi	t3,t3,-580 # 80002050 <begin_signature>
8000029c:	02ae2623          	sw	a0,44(t3)
800002a0:	01d51c63          	bne	a0,t4,800002b8 <fail>
800002a4:	00c00193          	li	gp,12
800002a8:	00002e17          	auipc	t3,0x2
800002ac:	da8e0e13          	addi	t3,t3,-600 # 80002050 <begin_signature>
800002b0:	023e2823          	sw	gp,48(t3)
800002b4:	00301e63          	bne	zero,gp,800002d0 <pass>

800002b8 <fail>:
800002b8:	0ff0000f          	fence
800002bc:	00100193          	li	gp,1
800002c0:	00002e17          	auipc	t3,0x2
800002c4:	d90e0e13          	addi	t3,t3,-624 # 80002050 <begin_signature>
800002c8:	003e2023          	sw	gp,0(t3)
800002cc:	00000073          	ecall

800002d0 <pass>:
800002d0:	0ff0000f          	fence
800002d4:	00100193          	li	gp,1
800002d8:	00002e17          	auipc	t3,0x2
800002dc:	d78e0e13          	addi	t3,t3,-648 # 80002050 <begin_signature>
800002e0:	003e2023          	sw	gp,0(t3)
800002e4:	00000073          	ecall

800002e8 <end_testcode>:
800002e8:	c0001073          	unimp
	...

Disassembly of section .tohost:

80001000 <tohost>:
	...

80001100 <fromhost>:
	...

Disassembly of section .data:

80002000 <test_2_data>:
80002000:	0000                	unimp
80002002:	0000                	unimp
80002004:	0000                	unimp
80002006:	fff0                	fsw	fa2,124(a5)

80002008 <test_3_data>:
80002008:	0000                	unimp
8000200a:	0000                	unimp
8000200c:	0000                	unimp
8000200e:	bff0                	fsd	fa2,248(a5)

80002010 <test_4_data>:
80002010:	ffff                	0xffff
80002012:	ffff                	0xffff
80002014:	ffff                	0xffff
80002016:	          	0x800f

80002018 <test_5_data>:
80002018:	0000                	unimp
8000201a:	0000                	unimp
8000201c:	0000                	unimp
8000201e:	8000                	0x8000

80002020 <test_6_data>:
	...

80002028 <test_7_data>:
80002028:	ffff                	0xffff
8000202a:	ffff                	0xffff
8000202c:	ffff                	0xffff
8000202e:	          	fence	unknown,unknown

80002030 <test_8_data>:
80002030:	0000                	unimp
80002032:	0000                	unimp
80002034:	0000                	unimp
80002036:	3ff0                	fld	fa2,248(a5)

80002038 <test_9_data>:
80002038:	0000                	unimp
8000203a:	0000                	unimp
8000203c:	0000                	unimp
8000203e:	7ff0                	flw	fa2,124(a5)

80002040 <test_10_data>:
80002040:	0001                	nop
80002042:	0000                	unimp
80002044:	0000                	unimp
80002046:	7ff0                	flw	fa2,124(a5)

80002048 <test_11_data>:
80002048:	0000                	unimp
8000204a:	0000                	unimp
8000204c:	0000                	unimp
8000204e:	7ff8                	flw	fa4,124(a5)

80002050 <begin_signature>:
80002050:	ffff                	0xffff
80002052:	ffff                	0xffff
80002054:	ffff                	0xffff
80002056:	ffff                	0xffff
80002058:	ffff                	0xffff
8000205a:	ffff                	0xffff
8000205c:	ffff                	0xffff
8000205e:	ffff                	0xffff
80002060:	ffff                	0xffff
80002062:	ffff                	0xffff
80002064:	ffff                	0xffff
80002066:	ffff                	0xffff
80002068:	ffff                	0xffff
8000206a:	ffff                	0xffff
8000206c:	ffff                	0xffff
8000206e:	ffff                	0xffff
80002070:	ffff                	0xffff
80002072:	ffff                	0xffff
80002074:	ffff                	0xffff
80002076:	ffff                	0xffff
80002078:	ffff                	0xffff
8000207a:	ffff                	0xffff
8000207c:	ffff                	0xffff
8000207e:	ffff                	0xffff
80002080:	ffff                	0xffff
80002082:	ffff                	0xffff
80002084:	ffff                	0xffff
80002086:	ffff                	0xffff
80002088:	ffff                	0xffff
8000208a:	ffff                	0xffff
8000208c:	ffff                	0xffff
8000208e:	ffff                	0xffff
80002090:	ffff                	0xffff
80002092:	ffff                	0xffff
80002094:	ffff                	0xffff
80002096:	ffff                	0xffff
80002098:	ffff                	0xffff
8000209a:	ffff                	0xffff
8000209c:	ffff                	0xffff
8000209e:	ffff                	0xffff
800020a0:	ffff                	0xffff
800020a2:	ffff                	0xffff
800020a4:	ffff                	0xffff
800020a6:	ffff                	0xffff
800020a8:	ffff                	0xffff
800020aa:	ffff                	0xffff
800020ac:	ffff                	0xffff
800020ae:	ffff                	0xffff
800020b0:	ffff                	0xffff
800020b2:	ffff                	0xffff
800020b4:	ffff                	0xffff
800020b6:	ffff                	0xffff
800020b8:	ffff                	0xffff
800020ba:	ffff                	0xffff
800020bc:	ffff                	0xffff
800020be:	ffff                	0xffff
800020c0:	ffff                	0xffff
800020c2:	ffff                	0xffff
800020c4:	ffff                	0xffff
800020c6:	ffff                	0xffff
800020c8:	ffff                	0xffff
800020ca:	ffff                	0xffff
800020cc:	ffff                	0xffff
800020ce:	ffff                	0xffff
800020d0:	ffff                	0xffff
800020d2:	ffff                	0xffff
800020d4:	ffff                	0xffff
800020d6:	ffff                	0xffff
800020d8:	ffff                	0xffff
800020da:	ffff                	0xffff
800020dc:	ffff                	0xffff
800020de:	ffff                	0xffff
800020e0:	ffff                	0xffff
800020e2:	ffff                	0xffff
800020e4:	ffff                	0xffff
800020e6:	ffff                	0xffff
800020e8:	ffff                	0xffff
800020ea:	ffff                	0xffff
800020ec:	ffff                	0xffff
800020ee:	ffff                	0xffff

800020f0 <end_signature>:
	...

80002100 <begin_regstate>:
80002100:	0080                	addi	s0,sp,64
	...

80002200 <end_regstate>:
80002200:	0004                	0x4
	...
