
/home/ubuntu/Desktop/riscv-compliance-master/work/rv32uf/fmin.elf：     文件格式 elf32-littleriscv


Disassembly of section .text.init:

00000000 <_start>:
   0:	04c0006f          	j	4c <reset_vector>

00000004 <trap_vector>:
   4:	34202f73          	csrr	t5,mcause
   8:	00800f93          	li	t6,8
   c:	03ff0a63          	beq	t5,t6,40 <write_tohost>
  10:	00900f93          	li	t6,9
  14:	03ff0663          	beq	t5,t6,40 <write_tohost>
  18:	00b00f93          	li	t6,11
  1c:	03ff0263          	beq	t5,t6,40 <write_tohost>
  20:	00000f17          	auipc	t5,0x0
  24:	fe0f0f13          	addi	t5,t5,-32 # 0 <_start>
  28:	000f0463          	beqz	t5,30 <trap_vector+0x2c>
  2c:	000f0067          	jr	t5
  30:	34202f73          	csrr	t5,mcause
  34:	000f5463          	bgez	t5,3c <handle_exception>
  38:	0040006f          	j	3c <handle_exception>

0000003c <handle_exception>:
  3c:	5391e193          	ori	gp,gp,1337

00000040 <write_tohost>:
  40:	00001f17          	auipc	t5,0x1
  44:	fc3f2023          	sw	gp,-64(t5) # 1000 <tohost>
  48:	ff9ff06f          	j	40 <write_tohost>

0000004c <reset_vector>:
  4c:	f1402573          	csrr	a0,mhartid
  50:	00051063          	bnez	a0,50 <reset_vector+0x4>
  54:	00000297          	auipc	t0,0x0
  58:	01028293          	addi	t0,t0,16 # 64 <reset_vector+0x18>
  5c:	30529073          	csrw	mtvec,t0
  60:	18005073          	csrwi	satp,0
  64:	00000297          	auipc	t0,0x0
  68:	01c28293          	addi	t0,t0,28 # 80 <reset_vector+0x34>
  6c:	30529073          	csrw	mtvec,t0
  70:	fff00293          	li	t0,-1
  74:	3b029073          	csrw	pmpaddr0,t0
  78:	01f00293          	li	t0,31
  7c:	3a029073          	csrw	pmpcfg0,t0
  80:	00000297          	auipc	t0,0x0
  84:	01828293          	addi	t0,t0,24 # 98 <reset_vector+0x4c>
  88:	30529073          	csrw	mtvec,t0
  8c:	30205073          	csrwi	medeleg,0
  90:	30305073          	csrwi	mideleg,0
  94:	30405073          	csrwi	mie,0
  98:	00000193          	li	gp,0
  9c:	00000297          	auipc	t0,0x0
  a0:	f6828293          	addi	t0,t0,-152 # 4 <trap_vector>
  a4:	30529073          	csrw	mtvec,t0
  a8:	00100513          	li	a0,1
  ac:	01f51513          	slli	a0,a0,0x1f
  b0:	00054e63          	bltz	a0,cc <reset_vector+0x80>
  b4:	0ff0000f          	fence
  b8:	00100193          	li	gp,1
  bc:	00002e17          	auipc	t3,0x2
  c0:	064e0e13          	addi	t3,t3,100 # 2120 <begin_signature>
  c4:	003e2023          	sw	gp,0(t3)
  c8:	00000073          	ecall
  cc:	00000297          	auipc	t0,0x0
  d0:	f3428293          	addi	t0,t0,-204 # 0 <_start>
  d4:	00028e63          	beqz	t0,f0 <reset_vector+0xa4>
  d8:	10529073          	csrw	stvec,t0
  dc:	0000b2b7          	lui	t0,0xb
  e0:	10928293          	addi	t0,t0,265 # b109 <_end+0x8e05>
  e4:	30229073          	csrw	medeleg,t0
  e8:	30202373          	csrr	t1,medeleg
  ec:	f46298e3          	bne	t0,t1,3c <handle_exception>
  f0:	30005073          	csrwi	mstatus,0
  f4:	00002537          	lui	a0,0x2
  f8:	30052073          	csrs	mstatus,a0
  fc:	00305073          	csrwi	fcsr,0
 100:	00000297          	auipc	t0,0x0
 104:	01428293          	addi	t0,t0,20 # 114 <begin_testcode>
 108:	34129073          	csrw	mepc,t0
 10c:	f1402573          	csrr	a0,mhartid
 110:	30200073          	mret

00000114 <begin_testcode>:
 114:	00200193          	li	gp,2
 118:	00002e17          	auipc	t3,0x2
 11c:	008e0e13          	addi	t3,t3,8 # 2120 <begin_signature>
 120:	003e2423          	sw	gp,8(t3)
 124:	00002517          	auipc	a0,0x2
 128:	edc50513          	addi	a0,a0,-292 # 2000 <test_2_data>
 12c:	00052007          	flw	ft0,0(a0)
 130:	00452087          	flw	ft1,4(a0)
 134:	00852107          	flw	ft2,8(a0)
 138:	00c52683          	lw	a3,12(a0)
 13c:	281001d3          	fmin.s	ft3,ft0,ft1
 140:	e0018553          	fmv.x.w	a0,ft3
 144:	001015f3          	fsflags	a1,zero
 148:	00000613          	li	a2,0
 14c:	44d51663          	bne	a0,a3,598 <fail>
 150:	44c59463          	bne	a1,a2,598 <fail>

00000154 <test_3>:
 154:	00300193          	li	gp,3
 158:	00002e17          	auipc	t3,0x2
 15c:	fc8e0e13          	addi	t3,t3,-56 # 2120 <begin_signature>
 160:	003e2623          	sw	gp,12(t3)
 164:	00002517          	auipc	a0,0x2
 168:	eac50513          	addi	a0,a0,-340 # 2010 <test_3_data>
 16c:	00052007          	flw	ft0,0(a0)
 170:	00452087          	flw	ft1,4(a0)
 174:	00852107          	flw	ft2,8(a0)
 178:	00c52683          	lw	a3,12(a0)
 17c:	281001d3          	fmin.s	ft3,ft0,ft1
 180:	e0018553          	fmv.x.w	a0,ft3
 184:	001015f3          	fsflags	a1,zero
 188:	00000613          	li	a2,0
 18c:	40d51663          	bne	a0,a3,598 <fail>
 190:	40c59463          	bne	a1,a2,598 <fail>

00000194 <test_4>:
 194:	00400193          	li	gp,4
 198:	00002e17          	auipc	t3,0x2
 19c:	f88e0e13          	addi	t3,t3,-120 # 2120 <begin_signature>
 1a0:	003e2823          	sw	gp,16(t3)
 1a4:	00002517          	auipc	a0,0x2
 1a8:	e7c50513          	addi	a0,a0,-388 # 2020 <test_4_data>
 1ac:	00052007          	flw	ft0,0(a0)
 1b0:	00452087          	flw	ft1,4(a0)
 1b4:	00852107          	flw	ft2,8(a0)
 1b8:	00c52683          	lw	a3,12(a0)
 1bc:	281001d3          	fmin.s	ft3,ft0,ft1
 1c0:	e0018553          	fmv.x.w	a0,ft3
 1c4:	001015f3          	fsflags	a1,zero
 1c8:	00000613          	li	a2,0
 1cc:	3cd51663          	bne	a0,a3,598 <fail>
 1d0:	3cc59463          	bne	a1,a2,598 <fail>

000001d4 <test_5>:
 1d4:	00500193          	li	gp,5
 1d8:	00002e17          	auipc	t3,0x2
 1dc:	f48e0e13          	addi	t3,t3,-184 # 2120 <begin_signature>
 1e0:	003e2a23          	sw	gp,20(t3)
 1e4:	00002517          	auipc	a0,0x2
 1e8:	e4c50513          	addi	a0,a0,-436 # 2030 <test_5_data>
 1ec:	00052007          	flw	ft0,0(a0)
 1f0:	00452087          	flw	ft1,4(a0)
 1f4:	00852107          	flw	ft2,8(a0)
 1f8:	00c52683          	lw	a3,12(a0)
 1fc:	281001d3          	fmin.s	ft3,ft0,ft1
 200:	e0018553          	fmv.x.w	a0,ft3
 204:	001015f3          	fsflags	a1,zero
 208:	00000613          	li	a2,0
 20c:	38d51663          	bne	a0,a3,598 <fail>
 210:	38c59463          	bne	a1,a2,598 <fail>

00000214 <test_6>:
 214:	00600193          	li	gp,6
 218:	00002e17          	auipc	t3,0x2
 21c:	f08e0e13          	addi	t3,t3,-248 # 2120 <begin_signature>
 220:	003e2c23          	sw	gp,24(t3)
 224:	00002517          	auipc	a0,0x2
 228:	e1c50513          	addi	a0,a0,-484 # 2040 <test_6_data>
 22c:	00052007          	flw	ft0,0(a0)
 230:	00452087          	flw	ft1,4(a0)
 234:	00852107          	flw	ft2,8(a0)
 238:	00c52683          	lw	a3,12(a0)
 23c:	281001d3          	fmin.s	ft3,ft0,ft1
 240:	e0018553          	fmv.x.w	a0,ft3
 244:	001015f3          	fsflags	a1,zero
 248:	00000613          	li	a2,0
 24c:	34d51663          	bne	a0,a3,598 <fail>
 250:	34c59463          	bne	a1,a2,598 <fail>

00000254 <test_7>:
 254:	00700193          	li	gp,7
 258:	00002e17          	auipc	t3,0x2
 25c:	ec8e0e13          	addi	t3,t3,-312 # 2120 <begin_signature>
 260:	003e2e23          	sw	gp,28(t3)
 264:	00002517          	auipc	a0,0x2
 268:	dec50513          	addi	a0,a0,-532 # 2050 <test_7_data>
 26c:	00052007          	flw	ft0,0(a0)
 270:	00452087          	flw	ft1,4(a0)
 274:	00852107          	flw	ft2,8(a0)
 278:	00c52683          	lw	a3,12(a0)
 27c:	281001d3          	fmin.s	ft3,ft0,ft1
 280:	e0018553          	fmv.x.w	a0,ft3
 284:	001015f3          	fsflags	a1,zero
 288:	00000613          	li	a2,0
 28c:	30d51663          	bne	a0,a3,598 <fail>
 290:	30c59463          	bne	a1,a2,598 <fail>

00000294 <test_12>:
 294:	00c00193          	li	gp,12
 298:	00002e17          	auipc	t3,0x2
 29c:	e88e0e13          	addi	t3,t3,-376 # 2120 <begin_signature>
 2a0:	023e2823          	sw	gp,48(t3)
 2a4:	00002517          	auipc	a0,0x2
 2a8:	dbc50513          	addi	a0,a0,-580 # 2060 <test_12_data>
 2ac:	00052007          	flw	ft0,0(a0)
 2b0:	00452087          	flw	ft1,4(a0)
 2b4:	00852107          	flw	ft2,8(a0)
 2b8:	00c52683          	lw	a3,12(a0)
 2bc:	281011d3          	fmax.s	ft3,ft0,ft1
 2c0:	e0018553          	fmv.x.w	a0,ft3
 2c4:	001015f3          	fsflags	a1,zero
 2c8:	00000613          	li	a2,0
 2cc:	2cd51663          	bne	a0,a3,598 <fail>
 2d0:	2cc59463          	bne	a1,a2,598 <fail>

000002d4 <test_13>:
 2d4:	00d00193          	li	gp,13
 2d8:	00002e17          	auipc	t3,0x2
 2dc:	e48e0e13          	addi	t3,t3,-440 # 2120 <begin_signature>
 2e0:	023e2a23          	sw	gp,52(t3)
 2e4:	00002517          	auipc	a0,0x2
 2e8:	d8c50513          	addi	a0,a0,-628 # 2070 <test_13_data>
 2ec:	00052007          	flw	ft0,0(a0)
 2f0:	00452087          	flw	ft1,4(a0)
 2f4:	00852107          	flw	ft2,8(a0)
 2f8:	00c52683          	lw	a3,12(a0)
 2fc:	281011d3          	fmax.s	ft3,ft0,ft1
 300:	e0018553          	fmv.x.w	a0,ft3
 304:	001015f3          	fsflags	a1,zero
 308:	00000613          	li	a2,0
 30c:	28d51663          	bne	a0,a3,598 <fail>
 310:	28c59463          	bne	a1,a2,598 <fail>

00000314 <test_14>:
 314:	00e00193          	li	gp,14
 318:	00002e17          	auipc	t3,0x2
 31c:	e08e0e13          	addi	t3,t3,-504 # 2120 <begin_signature>
 320:	023e2c23          	sw	gp,56(t3)
 324:	00002517          	auipc	a0,0x2
 328:	d5c50513          	addi	a0,a0,-676 # 2080 <test_14_data>
 32c:	00052007          	flw	ft0,0(a0)
 330:	00452087          	flw	ft1,4(a0)
 334:	00852107          	flw	ft2,8(a0)
 338:	00c52683          	lw	a3,12(a0)
 33c:	281011d3          	fmax.s	ft3,ft0,ft1
 340:	e0018553          	fmv.x.w	a0,ft3
 344:	001015f3          	fsflags	a1,zero
 348:	00000613          	li	a2,0
 34c:	24d51663          	bne	a0,a3,598 <fail>
 350:	24c59463          	bne	a1,a2,598 <fail>

00000354 <test_15>:
 354:	00f00193          	li	gp,15
 358:	00002e17          	auipc	t3,0x2
 35c:	dc8e0e13          	addi	t3,t3,-568 # 2120 <begin_signature>
 360:	023e2e23          	sw	gp,60(t3)
 364:	00002517          	auipc	a0,0x2
 368:	d2c50513          	addi	a0,a0,-724 # 2090 <test_15_data>
 36c:	00052007          	flw	ft0,0(a0)
 370:	00452087          	flw	ft1,4(a0)
 374:	00852107          	flw	ft2,8(a0)
 378:	00c52683          	lw	a3,12(a0)
 37c:	281011d3          	fmax.s	ft3,ft0,ft1
 380:	e0018553          	fmv.x.w	a0,ft3
 384:	001015f3          	fsflags	a1,zero
 388:	00000613          	li	a2,0
 38c:	20d51663          	bne	a0,a3,598 <fail>
 390:	20c59463          	bne	a1,a2,598 <fail>

00000394 <test_16>:
 394:	01000193          	li	gp,16
 398:	00002e17          	auipc	t3,0x2
 39c:	d88e0e13          	addi	t3,t3,-632 # 2120 <begin_signature>
 3a0:	043e2023          	sw	gp,64(t3)
 3a4:	00002517          	auipc	a0,0x2
 3a8:	cfc50513          	addi	a0,a0,-772 # 20a0 <test_16_data>
 3ac:	00052007          	flw	ft0,0(a0)
 3b0:	00452087          	flw	ft1,4(a0)
 3b4:	00852107          	flw	ft2,8(a0)
 3b8:	00c52683          	lw	a3,12(a0)
 3bc:	281011d3          	fmax.s	ft3,ft0,ft1
 3c0:	e0018553          	fmv.x.w	a0,ft3
 3c4:	001015f3          	fsflags	a1,zero
 3c8:	00000613          	li	a2,0
 3cc:	1cd51663          	bne	a0,a3,598 <fail>
 3d0:	1cc59463          	bne	a1,a2,598 <fail>

000003d4 <test_17>:
 3d4:	01100193          	li	gp,17
 3d8:	00002e17          	auipc	t3,0x2
 3dc:	d48e0e13          	addi	t3,t3,-696 # 2120 <begin_signature>
 3e0:	043e2223          	sw	gp,68(t3)
 3e4:	00002517          	auipc	a0,0x2
 3e8:	ccc50513          	addi	a0,a0,-820 # 20b0 <test_17_data>
 3ec:	00052007          	flw	ft0,0(a0)
 3f0:	00452087          	flw	ft1,4(a0)
 3f4:	00852107          	flw	ft2,8(a0)
 3f8:	00c52683          	lw	a3,12(a0)
 3fc:	281011d3          	fmax.s	ft3,ft0,ft1
 400:	e0018553          	fmv.x.w	a0,ft3
 404:	001015f3          	fsflags	a1,zero
 408:	00000613          	li	a2,0
 40c:	18d51663          	bne	a0,a3,598 <fail>
 410:	18c59463          	bne	a1,a2,598 <fail>

00000414 <test_20>:
 414:	01400193          	li	gp,20
 418:	00002e17          	auipc	t3,0x2
 41c:	d08e0e13          	addi	t3,t3,-760 # 2120 <begin_signature>
 420:	043e2823          	sw	gp,80(t3)
 424:	00002517          	auipc	a0,0x2
 428:	c9c50513          	addi	a0,a0,-868 # 20c0 <test_20_data>
 42c:	00052007          	flw	ft0,0(a0)
 430:	00452087          	flw	ft1,4(a0)
 434:	00852107          	flw	ft2,8(a0)
 438:	00c52683          	lw	a3,12(a0)
 43c:	281011d3          	fmax.s	ft3,ft0,ft1
 440:	e0018553          	fmv.x.w	a0,ft3
 444:	001015f3          	fsflags	a1,zero
 448:	01000613          	li	a2,16
 44c:	14d51663          	bne	a0,a3,598 <fail>
 450:	14c59463          	bne	a1,a2,598 <fail>

00000454 <test_21>:
 454:	01500193          	li	gp,21
 458:	00002e17          	auipc	t3,0x2
 45c:	cc8e0e13          	addi	t3,t3,-824 # 2120 <begin_signature>
 460:	043e2a23          	sw	gp,84(t3)
 464:	00002517          	auipc	a0,0x2
 468:	c6c50513          	addi	a0,a0,-916 # 20d0 <test_21_data>
 46c:	00052007          	flw	ft0,0(a0)
 470:	00452087          	flw	ft1,4(a0)
 474:	00852107          	flw	ft2,8(a0)
 478:	00c52683          	lw	a3,12(a0)
 47c:	281011d3          	fmax.s	ft3,ft0,ft1
 480:	e0018553          	fmv.x.w	a0,ft3
 484:	001015f3          	fsflags	a1,zero
 488:	00000613          	li	a2,0
 48c:	10d51663          	bne	a0,a3,598 <fail>
 490:	10c59463          	bne	a1,a2,598 <fail>

00000494 <test_30>:
 494:	01e00193          	li	gp,30
 498:	00002e17          	auipc	t3,0x2
 49c:	c88e0e13          	addi	t3,t3,-888 # 2120 <begin_signature>
 4a0:	063e2c23          	sw	gp,120(t3)
 4a4:	00002517          	auipc	a0,0x2
 4a8:	c3c50513          	addi	a0,a0,-964 # 20e0 <test_30_data>
 4ac:	00052007          	flw	ft0,0(a0)
 4b0:	00452087          	flw	ft1,4(a0)
 4b4:	00852107          	flw	ft2,8(a0)
 4b8:	00c52683          	lw	a3,12(a0)
 4bc:	281001d3          	fmin.s	ft3,ft0,ft1
 4c0:	e0018553          	fmv.x.w	a0,ft3
 4c4:	001015f3          	fsflags	a1,zero
 4c8:	00000613          	li	a2,0
 4cc:	0cd51663          	bne	a0,a3,598 <fail>
 4d0:	0cc59463          	bne	a1,a2,598 <fail>

000004d4 <test_31>:
 4d4:	01f00193          	li	gp,31
 4d8:	00002e17          	auipc	t3,0x2
 4dc:	c48e0e13          	addi	t3,t3,-952 # 2120 <begin_signature>
 4e0:	063e2e23          	sw	gp,124(t3)
 4e4:	00002517          	auipc	a0,0x2
 4e8:	c0c50513          	addi	a0,a0,-1012 # 20f0 <test_31_data>
 4ec:	00052007          	flw	ft0,0(a0)
 4f0:	00452087          	flw	ft1,4(a0)
 4f4:	00852107          	flw	ft2,8(a0)
 4f8:	00c52683          	lw	a3,12(a0)
 4fc:	281001d3          	fmin.s	ft3,ft0,ft1
 500:	e0018553          	fmv.x.w	a0,ft3
 504:	001015f3          	fsflags	a1,zero
 508:	00000613          	li	a2,0
 50c:	08d51663          	bne	a0,a3,598 <fail>
 510:	08c59463          	bne	a1,a2,598 <fail>

00000514 <test_32>:
 514:	02000193          	li	gp,32
 518:	00002e17          	auipc	t3,0x2
 51c:	c08e0e13          	addi	t3,t3,-1016 # 2120 <begin_signature>
 520:	083e2023          	sw	gp,128(t3)
 524:	00002517          	auipc	a0,0x2
 528:	bdc50513          	addi	a0,a0,-1060 # 2100 <test_32_data>
 52c:	00052007          	flw	ft0,0(a0)
 530:	00452087          	flw	ft1,4(a0)
 534:	00852107          	flw	ft2,8(a0)
 538:	00c52683          	lw	a3,12(a0)
 53c:	281011d3          	fmax.s	ft3,ft0,ft1
 540:	e0018553          	fmv.x.w	a0,ft3
 544:	001015f3          	fsflags	a1,zero
 548:	00000613          	li	a2,0
 54c:	04d51663          	bne	a0,a3,598 <fail>
 550:	04c59463          	bne	a1,a2,598 <fail>

00000554 <test_33>:
 554:	02100193          	li	gp,33
 558:	00002e17          	auipc	t3,0x2
 55c:	bc8e0e13          	addi	t3,t3,-1080 # 2120 <begin_signature>
 560:	083e2223          	sw	gp,132(t3)
 564:	00002517          	auipc	a0,0x2
 568:	bac50513          	addi	a0,a0,-1108 # 2110 <test_33_data>
 56c:	00052007          	flw	ft0,0(a0)
 570:	00452087          	flw	ft1,4(a0)
 574:	00852107          	flw	ft2,8(a0)
 578:	00c52683          	lw	a3,12(a0)
 57c:	281011d3          	fmax.s	ft3,ft0,ft1
 580:	e0018553          	fmv.x.w	a0,ft3
 584:	001015f3          	fsflags	a1,zero
 588:	00000613          	li	a2,0
 58c:	00d51663          	bne	a0,a3,598 <fail>
 590:	00c59463          	bne	a1,a2,598 <fail>
 594:	00301e63          	bne	zero,gp,5b0 <pass>

00000598 <fail>:
 598:	0ff0000f          	fence
 59c:	00100193          	li	gp,1
 5a0:	00002e17          	auipc	t3,0x2
 5a4:	b80e0e13          	addi	t3,t3,-1152 # 2120 <begin_signature>
 5a8:	003e2023          	sw	gp,0(t3)
 5ac:	00000073          	ecall

000005b0 <pass>:
 5b0:	0ff0000f          	fence
 5b4:	00100193          	li	gp,1
 5b8:	00002e17          	auipc	t3,0x2
 5bc:	b68e0e13          	addi	t3,t3,-1176 # 2120 <begin_signature>
 5c0:	003e2023          	sw	gp,0(t3)
 5c4:	00000073          	ecall

000005c8 <end_testcode>:
 5c8:	c0001073          	unimp
	...

Disassembly of section .tohost:

00001000 <tohost>:
	...

00001100 <fromhost>:
	...
