
/home/ubuntu/Desktop/riscv-compliance-master/work/rv32i/I-CSRRCI-01.elf：     文件格式 elf32-littleriscv


Disassembly of section .text.init:

00000000 <_start>:
   0:	04c0006f          	j	4c <reset_vector>

00000004 <trap_vector>:
   4:	34202f73          	csrr	t5,mcause
   8:	00800f93          	li	t6,8
   c:	03ff0a63          	beq	t5,t6,40 <write_tohost>
  10:	00900f93          	li	t6,9
  14:	03ff0663          	beq	t5,t6,40 <write_tohost>
  18:	00b00f93          	li	t6,11
  1c:	03ff0263          	beq	t5,t6,40 <write_tohost>
  20:	00000f17          	auipc	t5,0x0
  24:	fe0f0f13          	addi	t5,t5,-32 # 0 <_start>
  28:	000f0463          	beqz	t5,30 <trap_vector+0x2c>
  2c:	000f0067          	jr	t5
  30:	34202f73          	csrr	t5,mcause
  34:	000f5463          	bgez	t5,3c <handle_exception>
  38:	0040006f          	j	3c <handle_exception>

0000003c <handle_exception>:
  3c:	5391e193          	ori	gp,gp,1337

00000040 <write_tohost>:
  40:	00001f17          	auipc	t5,0x1
  44:	fc3f2023          	sw	gp,-64(t5) # 1000 <tohost>
  48:	ff9ff06f          	j	40 <write_tohost>

0000004c <reset_vector>:
  4c:	f1402573          	csrr	a0,mhartid
  50:	00051063          	bnez	a0,50 <reset_vector+0x4>
  54:	00000297          	auipc	t0,0x0
  58:	01028293          	addi	t0,t0,16 # 64 <reset_vector+0x18>
  5c:	30529073          	csrw	mtvec,t0
  60:	18005073          	csrwi	satp,0
  64:	00000297          	auipc	t0,0x0
  68:	01c28293          	addi	t0,t0,28 # 80 <reset_vector+0x34>
  6c:	30529073          	csrw	mtvec,t0
  70:	fff00293          	li	t0,-1
  74:	3b029073          	csrw	pmpaddr0,t0
  78:	01f00293          	li	t0,31
  7c:	3a029073          	csrw	pmpcfg0,t0
  80:	00000297          	auipc	t0,0x0
  84:	01828293          	addi	t0,t0,24 # 98 <reset_vector+0x4c>
  88:	30529073          	csrw	mtvec,t0
  8c:	30205073          	csrwi	medeleg,0
  90:	30305073          	csrwi	mideleg,0
  94:	30405073          	csrwi	mie,0
  98:	00000193          	li	gp,0
  9c:	00000297          	auipc	t0,0x0
  a0:	f6828293          	addi	t0,t0,-152 # 4 <trap_vector>
  a4:	30529073          	csrw	mtvec,t0
  a8:	00100513          	li	a0,1
  ac:	01f51513          	slli	a0,a0,0x1f
  b0:	00054863          	bltz	a0,c0 <reset_vector+0x74>
  b4:	0ff0000f          	fence
  b8:	00100193          	li	gp,1
  bc:	00000073          	ecall
  c0:	00000297          	auipc	t0,0x0
  c4:	f4028293          	addi	t0,t0,-192 # 0 <_start>
  c8:	00028e63          	beqz	t0,e4 <reset_vector+0x98>
  cc:	10529073          	csrw	stvec,t0
  d0:	0000b2b7          	lui	t0,0xb
  d4:	10928293          	addi	t0,t0,265 # b109 <_end+0x8f05>
  d8:	30229073          	csrw	medeleg,t0
  dc:	30202373          	csrr	t1,medeleg
  e0:	f4629ee3          	bne	t0,t1,3c <handle_exception>
  e4:	30005073          	csrwi	mstatus,0
  e8:	00002537          	lui	a0,0x2
  ec:	80050513          	addi	a0,a0,-2048 # 1800 <fromhost+0x700>
  f0:	30052073          	csrs	mstatus,a0
  f4:	00000297          	auipc	t0,0x0
  f8:	01428293          	addi	t0,t0,20 # 108 <begin_testcode>
  fc:	34129073          	csrw	mepc,t0
 100:	f1402573          	csrr	a0,mhartid
 104:	30200073          	mret

00000108 <begin_testcode>:
 108:	00002797          	auipc	a5,0x2
 10c:	ef878793          	addi	a5,a5,-264 # 2000 <begin_signature>
 110:	fff00413          	li	s0,-1
 114:	34041073          	csrw	mscratch,s0
 118:	3400f0f3          	csrrci	ra,mscratch,1
 11c:	340410f3          	csrrw	ra,mscratch,s0
 120:	34007173          	csrrci	sp,mscratch,0
 124:	34041173          	csrrw	sp,mscratch,s0
 128:	340ff1f3          	csrrci	gp,mscratch,31
 12c:	340411f3          	csrrw	gp,mscratch,s0
 130:	34087273          	csrrci	tp,mscratch,16
 134:	34041273          	csrrw	tp,mscratch,s0
 138:	3407f2f3          	csrrci	t0,mscratch,15
 13c:	340412f3          	csrrw	t0,mscratch,s0
 140:	0007a023          	sw	zero,0(a5)
 144:	0017a223          	sw	ra,4(a5)
 148:	0027a423          	sw	sp,8(a5)
 14c:	0037a623          	sw	gp,12(a5)
 150:	0047a823          	sw	tp,16(a5)
 154:	0057aa23          	sw	t0,20(a5)
 158:	0087ac23          	sw	s0,24(a5)
 15c:	00002297          	auipc	t0,0x2
 160:	ec028293          	addi	t0,t0,-320 # 201c <test_A2_res>
 164:	fff00413          	li	s0,-1
 168:	34041073          	csrw	mscratch,s0
 16c:	3400f5f3          	csrrci	a1,mscratch,1
 170:	34007673          	csrrci	a2,mscratch,0
 174:	340ff6f3          	csrrci	a3,mscratch,31
 178:	34087773          	csrrci	a4,mscratch,16
 17c:	3407f7f3          	csrrci	a5,mscratch,15
 180:	34007873          	csrrci	a6,mscratch,0
 184:	00b2a023          	sw	a1,0(t0)
 188:	00c2a223          	sw	a2,4(t0)
 18c:	00d2a423          	sw	a3,8(t0)
 190:	00e2a623          	sw	a4,12(t0)
 194:	00f2a823          	sw	a5,16(t0)
 198:	0102aa23          	sw	a6,20(t0)
 19c:	0082ac23          	sw	s0,24(t0)
 1a0:	00002097          	auipc	ra,0x2
 1a4:	e9808093          	addi	ra,ra,-360 # 2038 <test_B_res>
 1a8:	32165a37          	lui	s4,0x32165
 1ac:	498a0a13          	addi	s4,s4,1176 # 32165498 <_end+0x32163294>
 1b0:	340a1073          	csrw	mscratch,s4
 1b4:	3407f073          	csrci	mscratch,15
 1b8:	340a1a73          	csrrw	s4,mscratch,s4
 1bc:	0000a023          	sw	zero,0(ra)
 1c0:	0140a223          	sw	s4,4(ra)
 1c4:	0ff0000f          	fence
 1c8:	00100193          	li	gp,1
 1cc:	00000073          	ecall

000001d0 <end_testcode>:
 1d0:	c0001073          	unimp
	...

Disassembly of section .tohost:

00001000 <tohost>:
	...

00001100 <fromhost>:
	...
