
/home/ubuntu/Desktop/riscv-compliance-master/work/rv32i/I-RF_size-01.elf：     文件格式 elf32-littleriscv


Disassembly of section .text.init:

00000000 <_start>:
   0:	04c0006f          	j	4c <reset_vector>

00000004 <trap_vector>:
   4:	34202f73          	csrr	t5,mcause
   8:	00800f93          	li	t6,8
   c:	03ff0a63          	beq	t5,t6,40 <write_tohost>
  10:	00900f93          	li	t6,9
  14:	03ff0663          	beq	t5,t6,40 <write_tohost>
  18:	00b00f93          	li	t6,11
  1c:	03ff0263          	beq	t5,t6,40 <write_tohost>
  20:	00000f17          	auipc	t5,0x0
  24:	fe0f0f13          	addi	t5,t5,-32 # 0 <_start>
  28:	000f0463          	beqz	t5,30 <trap_vector+0x2c>
  2c:	000f0067          	jr	t5
  30:	34202f73          	csrr	t5,mcause
  34:	000f5463          	bgez	t5,3c <handle_exception>
  38:	0040006f          	j	3c <handle_exception>

0000003c <handle_exception>:
  3c:	5391e193          	ori	gp,gp,1337

00000040 <write_tohost>:
  40:	00001f17          	auipc	t5,0x1
  44:	fc3f2023          	sw	gp,-64(t5) # 1000 <tohost>
  48:	ff9ff06f          	j	40 <write_tohost>

0000004c <reset_vector>:
  4c:	f1402573          	csrr	a0,mhartid
  50:	00051063          	bnez	a0,50 <reset_vector+0x4>
  54:	00000297          	auipc	t0,0x0
  58:	01028293          	addi	t0,t0,16 # 64 <reset_vector+0x18>
  5c:	30529073          	csrw	mtvec,t0
  60:	18005073          	csrwi	satp,0
  64:	00000297          	auipc	t0,0x0
  68:	01c28293          	addi	t0,t0,28 # 80 <reset_vector+0x34>
  6c:	30529073          	csrw	mtvec,t0
  70:	fff00293          	li	t0,-1
  74:	3b029073          	csrw	pmpaddr0,t0
  78:	01f00293          	li	t0,31
  7c:	3a029073          	csrw	pmpcfg0,t0
  80:	00000297          	auipc	t0,0x0
  84:	01828293          	addi	t0,t0,24 # 98 <reset_vector+0x4c>
  88:	30529073          	csrw	mtvec,t0
  8c:	30205073          	csrwi	medeleg,0
  90:	30305073          	csrwi	mideleg,0
  94:	30405073          	csrwi	mie,0
  98:	00000193          	li	gp,0
  9c:	00000297          	auipc	t0,0x0
  a0:	f6828293          	addi	t0,t0,-152 # 4 <trap_vector>
  a4:	30529073          	csrw	mtvec,t0
  a8:	00100513          	li	a0,1
  ac:	01f51513          	slli	a0,a0,0x1f
  b0:	00054863          	bltz	a0,c0 <reset_vector+0x74>
  b4:	0ff0000f          	fence
  b8:	00100193          	li	gp,1
  bc:	00000073          	ecall
  c0:	00000297          	auipc	t0,0x0
  c4:	f4028293          	addi	t0,t0,-192 # 0 <_start>
  c8:	00028e63          	beqz	t0,e4 <reset_vector+0x98>
  cc:	10529073          	csrw	stvec,t0
  d0:	0000b2b7          	lui	t0,0xb
  d4:	10928293          	addi	t0,t0,265 # b109 <_end+0x8f05>
  d8:	30229073          	csrw	medeleg,t0
  dc:	30202373          	csrr	t1,medeleg
  e0:	f4629ee3          	bne	t0,t1,3c <handle_exception>
  e4:	30005073          	csrwi	mstatus,0
  e8:	00002537          	lui	a0,0x2
  ec:	80050513          	addi	a0,a0,-2048 # 1800 <fromhost+0x700>
  f0:	30052073          	csrs	mstatus,a0
  f4:	00000297          	auipc	t0,0x0
  f8:	01428293          	addi	t0,t0,20 # 108 <begin_testcode>
  fc:	34129073          	csrw	mepc,t0
 100:	f1402573          	csrr	a0,mhartid
 104:	30200073          	mret

00000108 <begin_testcode>:
 108:	00002817          	auipc	a6,0x2
 10c:	ef880813          	addi	a6,a6,-264 # 2000 <begin_signature>
 110:	42727037          	lui	zero,0x42727
 114:	e6f00013          	li	zero,-401
 118:	563330b7          	lui	ra,0x56333
 11c:	24908093          	addi	ra,ra,585 # 56333249 <_end+0x56331045>
 120:	2d562137          	lui	sp,0x2d562
 124:	05210113          	addi	sp,sp,82 # 2d562052 <_end+0x2d55fe4e>
 128:	526971b7          	lui	gp,0x52697
 12c:	36318193          	addi	gp,gp,867 # 52697363 <_end+0x5269515f>
 130:	736b8237          	lui	tp,0x736b8
 134:	92020213          	addi	tp,tp,-1760 # 736b7920 <_end+0x736b571c>
 138:	737462b7          	lui	t0,0x73746
 13c:	57228293          	addi	t0,t0,1394 # 73746572 <_end+0x7374436e>
 140:	6e205337          	lui	t1,0x6e205
 144:	e6f30313          	addi	t1,t1,-401 # 6e204e6f <_end+0x6e202c6b>
 148:	4d6973b7          	lui	t2,0x4d697
 14c:	c6138393          	addi	t2,t2,-927 # 4d696c61 <_end+0x4d694a5d>
 150:	6f646437          	lui	s0,0x6f646
 154:	17340413          	addi	s0,s0,371 # 6f646173 <_end+0x6f643f6f>
 158:	6b7944b7          	lui	s1,0x6b794
 15c:	06348493          	addi	s1,s1,99 # 6b794063 <_end+0x6b791e5f>
 160:	74657537          	lui	a0,0x74657
 164:	27350513          	addi	a0,a0,627 # 74657273 <_end+0x7465506f>
 168:	286e75b7          	lui	a1,0x286e7
 16c:	f7358593          	addi	a1,a1,-141 # 286e6f73 <_end+0x286e4d6f>
 170:	656b2637          	lui	a2,0x656b2
 174:	04860613          	addi	a2,a2,72 # 656b2048 <_end+0x656afe44>
 178:	205266b7          	lui	a3,0x20526
 17c:	16468693          	addi	a3,a3,356 # 20526164 <_end+0x20523f60>
 180:	6f6d3737          	lui	a4,0x6f6d3
 184:	92c70713          	addi	a4,a4,-1748 # 6f6d292c <_end+0x6f6d0728>
 188:	697037b7          	lui	a5,0x69703
 18c:	e6378793          	addi	a5,a5,-413 # 69702e63 <_end+0x69700c5f>
 190:	00082023          	sw	zero,0(a6)
 194:	00182223          	sw	ra,4(a6)
 198:	00282423          	sw	sp,8(a6)
 19c:	00382623          	sw	gp,12(a6)
 1a0:	00482823          	sw	tp,16(a6)
 1a4:	00582a23          	sw	t0,20(a6)
 1a8:	00682c23          	sw	t1,24(a6)
 1ac:	00782e23          	sw	t2,28(a6)
 1b0:	02882023          	sw	s0,32(a6)
 1b4:	02982223          	sw	s1,36(a6)
 1b8:	02a82423          	sw	a0,40(a6)
 1bc:	02b82623          	sw	a1,44(a6)
 1c0:	02c82823          	sw	a2,48(a6)
 1c4:	02d82a23          	sw	a3,52(a6)
 1c8:	02e82c23          	sw	a4,56(a6)
 1cc:	02f82e23          	sw	a5,60(a6)
 1d0:	00002217          	auipc	tp,0x2
 1d4:	e7020213          	addi	tp,tp,-400 # 2040 <test_A2_res>
 1d8:	636f6837          	lui	a6,0x636f6
 1dc:	46180813          	addi	a6,a6,1121 # 636f6461 <_end+0x636f425d>
 1e0:	6a6578b7          	lui	a7,0x6a657
 1e4:	b4088893          	addi	a7,a7,-1216 # 6a656b40 <_end+0x6a65493c>
 1e8:	20287937          	lui	s2,0x20287
 1ec:	86190913          	addi	s2,s2,-1951 # 20286861 <_end+0x2028465d>
 1f0:	616a69b7          	lui	s3,0x616a6
 1f4:	56b98993          	addi	s3,s3,1387 # 616a656b <_end+0x616a4367>
 1f8:	61766a37          	lui	s4,0x61766
 1fc:	520a0a13          	addi	s4,s4,1312 # 61766520 <_end+0x6176431c>
 200:	2e205ab7          	lui	s5,0x2e205
 204:	c65a8a93          	addi	s5,s5,-923 # 2e204c65 <_end+0x2e202a61>
 208:	636f7b37          	lui	s6,0x636f7
 20c:	d29b0b13          	addi	s6,s6,-727 # 636f6d29 <_end+0x636f4b25>
 210:	73697bb7          	lui	s7,0x73697
 214:	02eb8b93          	addi	s7,s7,46 # 7369702e <_end+0x73694e2a>
 218:	66208c37          	lui	s8,0x66208
 21c:	96fc0c13          	addi	s8,s8,-1681 # 6620796f <_end+0x6620576b>
 220:	67652cb7          	lui	s9,0x67652
 224:	069c8c93          	addi	s9,s9,105 # 67652069 <_end+0x6764fe65>
 228:	65737d37          	lui	s10,0x65737
 22c:	361d0d13          	addi	s10,s10,865 # 65737361 <_end+0x6573515d>
 230:	75732db7          	lui	s11,0x75732
 234:	06dd8d93          	addi	s11,s11,109 # 7573206d <_end+0x7572fe69>
 238:	3a291e37          	lui	t3,0x3a291
 23c:	d0ae0e13          	addi	t3,t3,-758 # 3a290d0a <_end+0x3a28eb06>
 240:	68697eb7          	lui	t4,0x68697
 244:	320e8e93          	addi	t4,t4,800 # 68697320 <_end+0x6869511c>
 248:	61642f37          	lui	t5,0x61642
 24c:	074f0f13          	addi	t5,t5,116 # 61642074 <_end+0x6163fe70>
 250:	75207fb7          	lui	t6,0x75207
 254:	265f8f93          	addi	t6,t6,613 # 75207265 <_end+0x75205061>
 258:	01022023          	sw	a6,0(tp) # 0 <_start>
 25c:	01122223          	sw	a7,4(tp) # 4 <trap_vector>
 260:	01222423          	sw	s2,8(tp) # 8 <trap_vector+0x4>
 264:	01322623          	sw	s3,12(tp) # c <trap_vector+0x8>
 268:	01422823          	sw	s4,16(tp) # 10 <trap_vector+0xc>
 26c:	01522a23          	sw	s5,20(tp) # 14 <trap_vector+0x10>
 270:	01622c23          	sw	s6,24(tp) # 18 <trap_vector+0x14>
 274:	01722e23          	sw	s7,28(tp) # 1c <trap_vector+0x18>
 278:	03822023          	sw	s8,32(tp) # 20 <trap_vector+0x1c>
 27c:	03922223          	sw	s9,36(tp) # 24 <trap_vector+0x20>
 280:	03a22423          	sw	s10,40(tp) # 28 <trap_vector+0x24>
 284:	03b22623          	sw	s11,44(tp) # 2c <trap_vector+0x28>
 288:	03c22823          	sw	t3,48(tp) # 30 <trap_vector+0x2c>
 28c:	03d22a23          	sw	t4,52(tp) # 34 <trap_vector+0x30>
 290:	03e22c23          	sw	t5,56(tp) # 38 <trap_vector+0x34>
 294:	03f22e23          	sw	t6,60(tp) # 3c <handle_exception>
 298:	00002217          	auipc	tp,0x2
 29c:	de820213          	addi	tp,tp,-536 # 2080 <test_A3_res>
 2a0:	00022023          	sw	zero,0(tp) # 0 <_start>
 2a4:	00122223          	sw	ra,4(tp) # 4 <trap_vector>
 2a8:	00222423          	sw	sp,8(tp) # 8 <trap_vector+0x4>
 2ac:	00322623          	sw	gp,12(tp) # c <trap_vector+0x8>
 2b0:	0ff0000f          	fence
 2b4:	00100193          	li	gp,1
 2b8:	00000073          	ecall

000002bc <end_testcode>:
 2bc:	c0001073          	unimp
 2c0:	0000                	unimp
	...

Disassembly of section .tohost:

00001000 <tohost>:
	...

00001100 <fromhost>:
	...
