
/home/ubuntu/Desktop/riscv-compliance-master/work/rv32i/I-SB-01.elf：     文件格式 elf32-littleriscv


Disassembly of section .text.init:

00000000 <_start>:
   0:	04c0006f          	j	4c <reset_vector>

00000004 <trap_vector>:
   4:	34202f73          	csrr	t5,mcause
   8:	00800f93          	li	t6,8
   c:	03ff0a63          	beq	t5,t6,40 <write_tohost>
  10:	00900f93          	li	t6,9
  14:	03ff0663          	beq	t5,t6,40 <write_tohost>
  18:	00b00f93          	li	t6,11
  1c:	03ff0263          	beq	t5,t6,40 <write_tohost>
  20:	00000f17          	auipc	t5,0x0
  24:	fe0f0f13          	addi	t5,t5,-32 # 0 <_start>
  28:	000f0463          	beqz	t5,30 <trap_vector+0x2c>
  2c:	000f0067          	jr	t5
  30:	34202f73          	csrr	t5,mcause
  34:	000f5463          	bgez	t5,3c <handle_exception>
  38:	0040006f          	j	3c <handle_exception>

0000003c <handle_exception>:
  3c:	5391e193          	ori	gp,gp,1337

00000040 <write_tohost>:
  40:	00001f17          	auipc	t5,0x1
  44:	fc3f2023          	sw	gp,-64(t5) # 1000 <tohost>
  48:	ff9ff06f          	j	40 <write_tohost>

0000004c <reset_vector>:
  4c:	f1402573          	csrr	a0,mhartid
  50:	00051063          	bnez	a0,50 <reset_vector+0x4>
  54:	00000297          	auipc	t0,0x0
  58:	01028293          	addi	t0,t0,16 # 64 <reset_vector+0x18>
  5c:	30529073          	csrw	mtvec,t0
  60:	18005073          	csrwi	satp,0
  64:	00000297          	auipc	t0,0x0
  68:	01c28293          	addi	t0,t0,28 # 80 <reset_vector+0x34>
  6c:	30529073          	csrw	mtvec,t0
  70:	fff00293          	li	t0,-1
  74:	3b029073          	csrw	pmpaddr0,t0
  78:	01f00293          	li	t0,31
  7c:	3a029073          	csrw	pmpcfg0,t0
  80:	00000297          	auipc	t0,0x0
  84:	01828293          	addi	t0,t0,24 # 98 <reset_vector+0x4c>
  88:	30529073          	csrw	mtvec,t0
  8c:	30205073          	csrwi	medeleg,0
  90:	30305073          	csrwi	mideleg,0
  94:	30405073          	csrwi	mie,0
  98:	00000193          	li	gp,0
  9c:	00000297          	auipc	t0,0x0
  a0:	f6828293          	addi	t0,t0,-152 # 4 <trap_vector>
  a4:	30529073          	csrw	mtvec,t0
  a8:	00100513          	li	a0,1
  ac:	01f51513          	slli	a0,a0,0x1f
  b0:	00054863          	bltz	a0,c0 <reset_vector+0x74>
  b4:	0ff0000f          	fence
  b8:	00100193          	li	gp,1
  bc:	00000073          	ecall
  c0:	00000297          	auipc	t0,0x0
  c4:	f4028293          	addi	t0,t0,-192 # 0 <_start>
  c8:	00028e63          	beqz	t0,e4 <reset_vector+0x98>
  cc:	10529073          	csrw	stvec,t0
  d0:	0000b2b7          	lui	t0,0xb
  d4:	10928293          	addi	t0,t0,265 # b109 <_end+0x8f05>
  d8:	30229073          	csrw	medeleg,t0
  dc:	30202373          	csrr	t1,medeleg
  e0:	f4629ee3          	bne	t0,t1,3c <handle_exception>
  e4:	30005073          	csrwi	mstatus,0
  e8:	00002537          	lui	a0,0x2
  ec:	80050513          	addi	a0,a0,-2048 # 1800 <fromhost+0x700>
  f0:	30052073          	csrs	mstatus,a0
  f4:	00000297          	auipc	t0,0x0
  f8:	01428293          	addi	t0,t0,20 # 108 <begin_testcode>
  fc:	34129073          	csrw	mepc,t0
 100:	f1402573          	csrr	a0,mhartid
 104:	30200073          	mret

00000108 <begin_testcode>:
 108:	00002097          	auipc	ra,0x2
 10c:	f0808093          	addi	ra,ra,-248 # 2010 <begin_signature>
 110:	aaaacfb7          	lui	t6,0xaaaac
 114:	bbbf8f93          	addi	t6,t6,-1093 # aaaabbbb <_end+0xaaaa99b7>
 118:	01f0a023          	sw	t6,0(ra)
 11c:	11f1f137          	lui	sp,0x11f1f
 120:	22210113          	addi	sp,sp,546 # 11f1f222 <_end+0x11f1d01e>
 124:	00208023          	sb	sp,0(ra)
 128:	00002297          	auipc	t0,0x2
 12c:	eed28293          	addi	t0,t0,-275 # 2015 <test_A2_res+0x1>
 130:	fe02afa3          	sw	zero,-1(t0)
 134:	f3334cb7          	lui	s9,0xf3334
 138:	4f4c8c93          	addi	s9,s9,1268 # f33344f4 <_end+0xf33322f0>
 13c:	ff928fa3          	sb	s9,-1(t0)
 140:	00002417          	auipc	s0,0x2
 144:	ed740413          	addi	s0,s0,-297 # 2017 <test_A2_res+0x3>
 148:	000420a3          	sw	zero,1(s0)
 14c:	55f5ffb7          	lui	t6,0x55f5f
 150:	666f8f93          	addi	t6,t6,1638 # 55f5f666 <_end+0x55f5d462>
 154:	01f400a3          	sb	t6,1(s0)
 158:	00002597          	auipc	a1,0x2
 15c:	6c458593          	addi	a1,a1,1732 # 281c <_end+0x618>
 160:	8005a023          	sw	zero,-2048(a1)
 164:	f7779637          	lui	a2,0xf7779
 168:	8f860613          	addi	a2,a2,-1800 # f77788f8 <_end+0xf77766f4>
 16c:	80c58023          	sb	a2,-2048(a1)
 170:	00001717          	auipc	a4,0x1
 174:	6b170713          	addi	a4,a4,1713 # 1821 <fromhost+0x721>
 178:	7e072fa3          	sw	zero,2047(a4)
 17c:	990917b7          	lui	a5,0x99091
 180:	aaa78793          	addi	a5,a5,-1366 # 99090aaa <_end+0x9908e8a6>
 184:	7ef70fa3          	sb	a5,2047(a4)
 188:	00002897          	auipc	a7,0x2
 18c:	ea088893          	addi	a7,a7,-352 # 2028 <test_B_res>
 190:	11111937          	lui	s2,0x11111
 194:	10c90913          	addi	s2,s2,268 # 1111110c <_end+0x1110ef08>
 198:	222229b7          	lui	s3,0x22222
 19c:	2cc98993          	addi	s3,s3,716 # 222222cc <_end+0x222200c8>
 1a0:	33333a37          	lui	s4,0x33333
 1a4:	3bba0a13          	addi	s4,s4,955 # 333333bb <_end+0x333311b7>
 1a8:	44444ab7          	lui	s5,0x44444
 1ac:	40ba8a93          	addi	s5,s5,1035 # 4444440b <_end+0x44442207>
 1b0:	55555b37          	lui	s6,0x55555
 1b4:	5eeb0b13          	addi	s6,s6,1518 # 555555ee <_end+0x555533ea>
 1b8:	66666bb7          	lui	s7,0x66666
 1bc:	60eb8b93          	addi	s7,s7,1550 # 6666660e <_end+0x6666440a>
 1c0:	77777c37          	lui	s8,0x77777
 1c4:	70dc0c13          	addi	s8,s8,1805 # 7777770d <_end+0x77775509>
 1c8:	88889cb7          	lui	s9,0x88889
 1cc:	8ddc8c93          	addi	s9,s9,-1827 # 888888dd <_end+0x888866d9>
 1d0:	9999ad37          	lui	s10,0x9999a
 1d4:	9f0d0d13          	addi	s10,s10,-1552 # 999999f0 <_end+0x999977ec>
 1d8:	aaaabdb7          	lui	s11,0xaaaab
 1dc:	a00d8d93          	addi	s11,s11,-1536 # aaaaaa00 <_end+0xaaaa87fc>
 1e0:	bbbbce37          	lui	t3,0xbbbbc
 1e4:	bffe0e13          	addi	t3,t3,-1025 # bbbbbbff <_end+0xbbbb99fb>
 1e8:	ccccdeb7          	lui	t4,0xccccd
 1ec:	c0fe8e93          	addi	t4,t4,-1009 # cccccc0f <_end+0xccccaa0b>
 1f0:	ff288e23          	sb	s2,-4(a7)
 1f4:	ff388ea3          	sb	s3,-3(a7)
 1f8:	ff488f23          	sb	s4,-2(a7)
 1fc:	ff588fa3          	sb	s5,-1(a7)
 200:	01688023          	sb	s6,0(a7)
 204:	017880a3          	sb	s7,1(a7)
 208:	01888123          	sb	s8,2(a7)
 20c:	019881a3          	sb	s9,3(a7)
 210:	01a88223          	sb	s10,4(a7)
 214:	01b882a3          	sb	s11,5(a7)
 218:	01c88323          	sb	t3,6(a7)
 21c:	01d883a3          	sb	t4,7(a7)
 220:	00002b17          	auipc	s6,0x2
 224:	e10b0b13          	addi	s6,s6,-496 # 2030 <test_C_res>
 228:	876540b7          	lui	ra,0x87654
 22c:	32108093          	addi	ra,ra,801 # 87654321 <_end+0x8765211d>
 230:	001b2023          	sw	ra,0(s6)
 234:	12345037          	lui	zero,0x12345
 238:	67800013          	li	zero,1656
 23c:	000b0023          	sb	zero,0(s6)
 240:	00002a97          	auipc	s5,0x2
 244:	dc0a8a93          	addi	s5,s5,-576 # 2000 <test_D1_data>
 248:	000aa083          	lw	ra,0(s5)
 24c:	0000a023          	sw	zero,0(ra)
 250:	112239b7          	lui	s3,0x11223
 254:	34498993          	addi	s3,s3,836 # 11223344 <_end+0x11221140>
 258:	000aab83          	lw	s7,0(s5)
 25c:	013b8023          	sb	s3,0(s7)
 260:	00002b97          	auipc	s7,0x2
 264:	da4b8b93          	addi	s7,s7,-604 # 2004 <test_D2_data>
 268:	00002c17          	auipc	s8,0x2
 26c:	dd0c0c13          	addi	s8,s8,-560 # 2038 <test_D2_res>
 270:	000c2023          	sw	zero,0(s8)
 274:	000bac83          	lw	s9,0(s7)
 278:	019c0023          	sb	s9,0(s8)
 27c:	00002d17          	auipc	s10,0x2
 280:	dc0d0d13          	addi	s10,s10,-576 # 203c <test_E1_res>
 284:	000d2023          	sw	zero,0(s10)
 288:	76543cb7          	lui	s9,0x76543
 28c:	210c8c93          	addi	s9,s9,528 # 76543210 <_end+0x7654100c>
 290:	019d0023          	sb	s9,0(s10)
 294:	00000c93          	li	s9,0
 298:	00002e17          	auipc	t3,0x2
 29c:	da8e0e13          	addi	t3,t3,-600 # 2040 <test_E2_res>
 2a0:	000e2023          	sw	zero,0(t3)
 2a4:	89abddb7          	lui	s11,0x89abd
 2a8:	defd8d93          	addi	s11,s11,-529 # 89abcdef <_end+0x89ababeb>
 2ac:	01be0023          	sb	s11,0(t3)
 2b0:	ffce0e13          	addi	t3,t3,-4
 2b4:	00002e97          	auipc	t4,0x2
 2b8:	d90e8e93          	addi	t4,t4,-624 # 2044 <test_F_res>
 2bc:	000ea023          	sw	zero,0(t4)
 2c0:	000ea223          	sw	zero,4(t4)
 2c4:	14726db7          	lui	s11,0x14726
 2c8:	836d8d93          	addi	s11,s11,-1994 # 14725836 <_end+0x14723632>
 2cc:	01be8023          	sb	s11,0(t4)
 2d0:	000eaf03          	lw	t5,0(t4)
 2d4:	01ee8223          	sb	t5,4(t4)
 2d8:	00002097          	auipc	ra,0x2
 2dc:	d7408093          	addi	ra,ra,-652 # 204c <test_G_res>
 2e0:	0000a023          	sw	zero,0(ra)
 2e4:	96385137          	lui	sp,0x96385
 2e8:	20110113          	addi	sp,sp,513 # 96385201 <_end+0x96382ffd>
 2ec:	258151b7          	lui	gp,0x25815
 2f0:	96318193          	addi	gp,gp,-1693 # 25814963 <_end+0x2581275f>
 2f4:	00208023          	sb	sp,0(ra)
 2f8:	00308023          	sb	gp,0(ra)
 2fc:	0ff0000f          	fence
 300:	00100193          	li	gp,1
 304:	00000073          	ecall

00000308 <end_testcode>:
 308:	c0001073          	unimp
	...

Disassembly of section .tohost:

00001000 <tohost>:
	...

00001100 <fromhost>:
	...
