
/home/ubuntu/Desktop/riscv-compliance-master/work/rv32i/I-SW-01.elf：     文件格式 elf32-littleriscv


Disassembly of section .text.init:

00000000 <_start>:
   0:	04c0006f          	j	4c <reset_vector>

00000004 <trap_vector>:
   4:	34202f73          	csrr	t5,mcause
   8:	00800f93          	li	t6,8
   c:	03ff0a63          	beq	t5,t6,40 <write_tohost>
  10:	00900f93          	li	t6,9
  14:	03ff0663          	beq	t5,t6,40 <write_tohost>
  18:	00b00f93          	li	t6,11
  1c:	03ff0263          	beq	t5,t6,40 <write_tohost>
  20:	00000f17          	auipc	t5,0x0
  24:	fe0f0f13          	addi	t5,t5,-32 # 0 <_start>
  28:	000f0463          	beqz	t5,30 <trap_vector+0x2c>
  2c:	000f0067          	jr	t5
  30:	34202f73          	csrr	t5,mcause
  34:	000f5463          	bgez	t5,3c <handle_exception>
  38:	0040006f          	j	3c <handle_exception>

0000003c <handle_exception>:
  3c:	5391e193          	ori	gp,gp,1337

00000040 <write_tohost>:
  40:	00001f17          	auipc	t5,0x1
  44:	fc3f2023          	sw	gp,-64(t5) # 1000 <tohost>
  48:	ff9ff06f          	j	40 <write_tohost>

0000004c <reset_vector>:
  4c:	f1402573          	csrr	a0,mhartid
  50:	00051063          	bnez	a0,50 <reset_vector+0x4>
  54:	00000297          	auipc	t0,0x0
  58:	01028293          	addi	t0,t0,16 # 64 <reset_vector+0x18>
  5c:	30529073          	csrw	mtvec,t0
  60:	18005073          	csrwi	satp,0
  64:	00000297          	auipc	t0,0x0
  68:	01c28293          	addi	t0,t0,28 # 80 <reset_vector+0x34>
  6c:	30529073          	csrw	mtvec,t0
  70:	fff00293          	li	t0,-1
  74:	3b029073          	csrw	pmpaddr0,t0
  78:	01f00293          	li	t0,31
  7c:	3a029073          	csrw	pmpcfg0,t0
  80:	00000297          	auipc	t0,0x0
  84:	01828293          	addi	t0,t0,24 # 98 <reset_vector+0x4c>
  88:	30529073          	csrw	mtvec,t0
  8c:	30205073          	csrwi	medeleg,0
  90:	30305073          	csrwi	mideleg,0
  94:	30405073          	csrwi	mie,0
  98:	00000193          	li	gp,0
  9c:	00000297          	auipc	t0,0x0
  a0:	f6828293          	addi	t0,t0,-152 # 4 <trap_vector>
  a4:	30529073          	csrw	mtvec,t0
  a8:	00100513          	li	a0,1
  ac:	01f51513          	slli	a0,a0,0x1f
  b0:	00054863          	bltz	a0,c0 <reset_vector+0x74>
  b4:	0ff0000f          	fence
  b8:	00100193          	li	gp,1
  bc:	00000073          	ecall
  c0:	00000297          	auipc	t0,0x0
  c4:	f4028293          	addi	t0,t0,-192 # 0 <_start>
  c8:	00028e63          	beqz	t0,e4 <reset_vector+0x98>
  cc:	10529073          	csrw	stvec,t0
  d0:	0000b2b7          	lui	t0,0xb
  d4:	10928293          	addi	t0,t0,265 # b109 <_end+0x8f05>
  d8:	30229073          	csrw	medeleg,t0
  dc:	30202373          	csrr	t1,medeleg
  e0:	f4629ee3          	bne	t0,t1,3c <handle_exception>
  e4:	30005073          	csrwi	mstatus,0
  e8:	00002537          	lui	a0,0x2
  ec:	80050513          	addi	a0,a0,-2048 # 1800 <fromhost+0x700>
  f0:	30052073          	csrs	mstatus,a0
  f4:	00000297          	auipc	t0,0x0
  f8:	01428293          	addi	t0,t0,20 # 108 <begin_testcode>
  fc:	34129073          	csrw	mepc,t0
 100:	f1402573          	csrr	a0,mhartid
 104:	30200073          	mret

00000108 <begin_testcode>:
 108:	00002097          	auipc	ra,0x2
 10c:	f0808093          	addi	ra,ra,-248 # 2010 <begin_signature>
 110:	11f1f137          	lui	sp,0x11f1f
 114:	22210113          	addi	sp,sp,546 # 11f1f222 <_end+0x11f1d01e>
 118:	0020a023          	sw	sp,0(ra)
 11c:	00002297          	auipc	t0,0x2
 120:	ef928293          	addi	t0,t0,-263 # 2015 <test_A2_res+0x1>
 124:	f3334cb7          	lui	s9,0xf3334
 128:	4f4c8c93          	addi	s9,s9,1268 # f33344f4 <_end+0xf33322f0>
 12c:	ff92afa3          	sw	s9,-1(t0)
 130:	00002417          	auipc	s0,0x2
 134:	ee740413          	addi	s0,s0,-281 # 2017 <test_A2_res+0x3>
 138:	55f5ffb7          	lui	t6,0x55f5f
 13c:	666f8f93          	addi	t6,t6,1638 # 55f5f666 <_end+0x55f5d462>
 140:	01f420a3          	sw	t6,1(s0)
 144:	00002597          	auipc	a1,0x2
 148:	6d858593          	addi	a1,a1,1752 # 281c <_end+0x618>
 14c:	f7779637          	lui	a2,0xf7779
 150:	8f860613          	addi	a2,a2,-1800 # f77788f8 <_end+0xf77766f4>
 154:	80c5a023          	sw	a2,-2048(a1)
 158:	00001717          	auipc	a4,0x1
 15c:	6c970713          	addi	a4,a4,1737 # 1821 <fromhost+0x721>
 160:	990917b7          	lui	a5,0x99091
 164:	aaa78793          	addi	a5,a5,-1366 # 99090aaa <_end+0x9908e8a6>
 168:	7ef72fa3          	sw	a5,2047(a4)
 16c:	00002897          	auipc	a7,0x2
 170:	ebc88893          	addi	a7,a7,-324 # 2028 <test_B_res>
 174:	0bbbd937          	lui	s2,0xbbbd
 178:	c0c90913          	addi	s2,s2,-1012 # bbbcc0c <_end+0xbbbaa08>
 17c:	dd0d19b7          	lui	s3,0xdd0d1
 180:	eee98993          	addi	s3,s3,-274 # dd0d0eee <_end+0xdd0cecea>
 184:	0fff0a37          	lui	s4,0xfff0
 188:	0f0a0a13          	addi	s4,s4,240 # fff00f0 <_end+0xffedeec>
 18c:	ff28ae23          	sw	s2,-4(a7)
 190:	0138a023          	sw	s3,0(a7)
 194:	0148a223          	sw	s4,4(a7)
 198:	00002b17          	auipc	s6,0x2
 19c:	e98b0b13          	addi	s6,s6,-360 # 2030 <test_C_res>
 1a0:	12345037          	lui	zero,0x12345
 1a4:	67800013          	li	zero,1656
 1a8:	000b2023          	sw	zero,0(s6)
 1ac:	00002a97          	auipc	s5,0x2
 1b0:	e54a8a93          	addi	s5,s5,-428 # 2000 <test_D1_data>
 1b4:	112239b7          	lui	s3,0x11223
 1b8:	34498993          	addi	s3,s3,836 # 11223344 <_end+0x11221140>
 1bc:	000aab83          	lw	s7,0(s5)
 1c0:	013ba023          	sw	s3,0(s7)
 1c4:	00002b97          	auipc	s7,0x2
 1c8:	e40b8b93          	addi	s7,s7,-448 # 2004 <test_D2_data>
 1cc:	00002c17          	auipc	s8,0x2
 1d0:	e6cc0c13          	addi	s8,s8,-404 # 2038 <test_D2_res>
 1d4:	000bac83          	lw	s9,0(s7)
 1d8:	019c2023          	sw	s9,0(s8)
 1dc:	00002d17          	auipc	s10,0x2
 1e0:	e60d0d13          	addi	s10,s10,-416 # 203c <test_E1_res>
 1e4:	76543cb7          	lui	s9,0x76543
 1e8:	210c8c93          	addi	s9,s9,528 # 76543210 <_end+0x7654100c>
 1ec:	019d2023          	sw	s9,0(s10)
 1f0:	00000c93          	li	s9,0
 1f4:	00002e17          	auipc	t3,0x2
 1f8:	e4ce0e13          	addi	t3,t3,-436 # 2040 <test_E2_res>
 1fc:	89abddb7          	lui	s11,0x89abd
 200:	defd8d93          	addi	s11,s11,-529 # 89abcdef <_end+0x89ababeb>
 204:	01be2023          	sw	s11,0(t3)
 208:	ffce0e13          	addi	t3,t3,-4
 20c:	00002e97          	auipc	t4,0x2
 210:	e38e8e93          	addi	t4,t4,-456 # 2044 <test_F_res>
 214:	14726db7          	lui	s11,0x14726
 218:	836d8d93          	addi	s11,s11,-1994 # 14725836 <_end+0x14723632>
 21c:	01bea023          	sw	s11,0(t4)
 220:	000eaf03          	lw	t5,0(t4)
 224:	01eea223          	sw	t5,4(t4)
 228:	00002097          	auipc	ra,0x2
 22c:	e2408093          	addi	ra,ra,-476 # 204c <test_G_res>
 230:	96385137          	lui	sp,0x96385
 234:	20110113          	addi	sp,sp,513 # 96385201 <_end+0x96382ffd>
 238:	258151b7          	lui	gp,0x25815
 23c:	96318193          	addi	gp,gp,-1693 # 25814963 <_end+0x2581275f>
 240:	0020a023          	sw	sp,0(ra)
 244:	0030a023          	sw	gp,0(ra)
 248:	0ff0000f          	fence
 24c:	00100193          	li	gp,1
 250:	00000073          	ecall

00000254 <end_testcode>:
 254:	c0001073          	unimp
	...

Disassembly of section .tohost:

00001000 <tohost>:
	...

00001100 <fromhost>:
	...
