
/home/ubuntu/Desktop/riscv-compliance-master/work/rv32ud/fmin.elf：     文件格式 elf32-littleriscv


Disassembly of section .text.init:

00000000 <_start>:
   0:	04c0006f          	j	4c <reset_vector>

00000004 <trap_vector>:
   4:	34202f73          	csrr	t5,mcause
   8:	00800f93          	li	t6,8
   c:	03ff0a63          	beq	t5,t6,40 <write_tohost>
  10:	00900f93          	li	t6,9
  14:	03ff0663          	beq	t5,t6,40 <write_tohost>
  18:	00b00f93          	li	t6,11
  1c:	03ff0263          	beq	t5,t6,40 <write_tohost>
  20:	00000f17          	auipc	t5,0x0
  24:	fe0f0f13          	addi	t5,t5,-32 # 0 <_start>
  28:	000f0463          	beqz	t5,30 <trap_vector+0x2c>
  2c:	000f0067          	jr	t5
  30:	34202f73          	csrr	t5,mcause
  34:	000f5463          	bgez	t5,3c <handle_exception>
  38:	0040006f          	j	3c <handle_exception>

0000003c <handle_exception>:
  3c:	5391e193          	ori	gp,gp,1337

00000040 <write_tohost>:
  40:	00001f17          	auipc	t5,0x1
  44:	fc3f2023          	sw	gp,-64(t5) # 1000 <tohost>
  48:	ff9ff06f          	j	40 <write_tohost>

0000004c <reset_vector>:
  4c:	f1402573          	csrr	a0,mhartid
  50:	00051063          	bnez	a0,50 <reset_vector+0x4>
  54:	00000297          	auipc	t0,0x0
  58:	01028293          	addi	t0,t0,16 # 64 <reset_vector+0x18>
  5c:	30529073          	csrw	mtvec,t0
  60:	18005073          	csrwi	satp,0
  64:	00000297          	auipc	t0,0x0
  68:	01c28293          	addi	t0,t0,28 # 80 <reset_vector+0x34>
  6c:	30529073          	csrw	mtvec,t0
  70:	fff00293          	li	t0,-1
  74:	3b029073          	csrw	pmpaddr0,t0
  78:	01f00293          	li	t0,31
  7c:	3a029073          	csrw	pmpcfg0,t0
  80:	00000297          	auipc	t0,0x0
  84:	01828293          	addi	t0,t0,24 # 98 <reset_vector+0x4c>
  88:	30529073          	csrw	mtvec,t0
  8c:	30205073          	csrwi	medeleg,0
  90:	30305073          	csrwi	mideleg,0
  94:	30405073          	csrwi	mie,0
  98:	00000193          	li	gp,0
  9c:	00000297          	auipc	t0,0x0
  a0:	f6828293          	addi	t0,t0,-152 # 4 <trap_vector>
  a4:	30529073          	csrw	mtvec,t0
  a8:	00100513          	li	a0,1
  ac:	01f51513          	slli	a0,a0,0x1f
  b0:	00054e63          	bltz	a0,cc <reset_vector+0x80>
  b4:	0ff0000f          	fence
  b8:	00100193          	li	gp,1
  bc:	00002e17          	auipc	t3,0x2
  c0:	184e0e13          	addi	t3,t3,388 # 2240 <begin_signature>
  c4:	003e2023          	sw	gp,0(t3)
  c8:	00000073          	ecall
  cc:	00000297          	auipc	t0,0x0
  d0:	f3428293          	addi	t0,t0,-204 # 0 <_start>
  d4:	00028e63          	beqz	t0,f0 <reset_vector+0xa4>
  d8:	10529073          	csrw	stvec,t0
  dc:	0000b2b7          	lui	t0,0xb
  e0:	10928293          	addi	t0,t0,265 # b109 <_end+0x8d05>
  e4:	30229073          	csrw	medeleg,t0
  e8:	30202373          	csrr	t1,medeleg
  ec:	f46298e3          	bne	t0,t1,3c <handle_exception>
  f0:	30005073          	csrwi	mstatus,0
  f4:	00002537          	lui	a0,0x2
  f8:	30052073          	csrs	mstatus,a0
  fc:	00305073          	csrwi	fcsr,0
 100:	00000297          	auipc	t0,0x0
 104:	01428293          	addi	t0,t0,20 # 114 <begin_testcode>
 108:	34129073          	csrw	mepc,t0
 10c:	f1402573          	csrr	a0,mhartid
 110:	30200073          	mret

00000114 <begin_testcode>:
 114:	00200193          	li	gp,2
 118:	00002e17          	auipc	t3,0x2
 11c:	128e0e13          	addi	t3,t3,296 # 2240 <begin_signature>
 120:	003e2423          	sw	gp,8(t3)
 124:	00002517          	auipc	a0,0x2
 128:	edc50513          	addi	a0,a0,-292 # 2000 <test_2_data>
 12c:	00053007          	fld	ft0,0(a0)
 130:	00853087          	fld	ft1,8(a0)
 134:	01053107          	fld	ft2,16(a0)
 138:	01852683          	lw	a3,24(a0)
 13c:	01c52303          	lw	t1,28(a0)
 140:	2a1001d3          	fmin.d	ft3,ft0,ft1
 144:	00353027          	fsd	ft3,0(a0)
 148:	00452383          	lw	t2,4(a0)
 14c:	00052503          	lw	a0,0(a0)
 150:	001015f3          	fsflags	a1,zero
 154:	00000613          	li	a2,0
 158:	56d51863          	bne	a0,a3,6c8 <fail>
 15c:	56731663          	bne	t1,t2,6c8 <fail>
 160:	56c59463          	bne	a1,a2,6c8 <fail>

00000164 <test_3>:
 164:	00300193          	li	gp,3
 168:	00002e17          	auipc	t3,0x2
 16c:	0d8e0e13          	addi	t3,t3,216 # 2240 <begin_signature>
 170:	003e2623          	sw	gp,12(t3)
 174:	00002517          	auipc	a0,0x2
 178:	eac50513          	addi	a0,a0,-340 # 2020 <test_3_data>
 17c:	00053007          	fld	ft0,0(a0)
 180:	00853087          	fld	ft1,8(a0)
 184:	01053107          	fld	ft2,16(a0)
 188:	01852683          	lw	a3,24(a0)
 18c:	01c52303          	lw	t1,28(a0)
 190:	2a1001d3          	fmin.d	ft3,ft0,ft1
 194:	00353027          	fsd	ft3,0(a0)
 198:	00452383          	lw	t2,4(a0)
 19c:	00052503          	lw	a0,0(a0)
 1a0:	001015f3          	fsflags	a1,zero
 1a4:	00000613          	li	a2,0
 1a8:	52d51063          	bne	a0,a3,6c8 <fail>
 1ac:	50731e63          	bne	t1,t2,6c8 <fail>
 1b0:	50c59c63          	bne	a1,a2,6c8 <fail>

000001b4 <test_4>:
 1b4:	00400193          	li	gp,4
 1b8:	00002e17          	auipc	t3,0x2
 1bc:	088e0e13          	addi	t3,t3,136 # 2240 <begin_signature>
 1c0:	003e2823          	sw	gp,16(t3)
 1c4:	00002517          	auipc	a0,0x2
 1c8:	e7c50513          	addi	a0,a0,-388 # 2040 <test_4_data>
 1cc:	00053007          	fld	ft0,0(a0)
 1d0:	00853087          	fld	ft1,8(a0)
 1d4:	01053107          	fld	ft2,16(a0)
 1d8:	01852683          	lw	a3,24(a0)
 1dc:	01c52303          	lw	t1,28(a0)
 1e0:	2a1001d3          	fmin.d	ft3,ft0,ft1
 1e4:	00353027          	fsd	ft3,0(a0)
 1e8:	00452383          	lw	t2,4(a0)
 1ec:	00052503          	lw	a0,0(a0)
 1f0:	001015f3          	fsflags	a1,zero
 1f4:	00000613          	li	a2,0
 1f8:	4cd51863          	bne	a0,a3,6c8 <fail>
 1fc:	4c731663          	bne	t1,t2,6c8 <fail>
 200:	4cc59463          	bne	a1,a2,6c8 <fail>

00000204 <test_5>:
 204:	00500193          	li	gp,5
 208:	00002e17          	auipc	t3,0x2
 20c:	038e0e13          	addi	t3,t3,56 # 2240 <begin_signature>
 210:	003e2a23          	sw	gp,20(t3)
 214:	00002517          	auipc	a0,0x2
 218:	e4c50513          	addi	a0,a0,-436 # 2060 <test_5_data>
 21c:	00053007          	fld	ft0,0(a0)
 220:	00853087          	fld	ft1,8(a0)
 224:	01053107          	fld	ft2,16(a0)
 228:	01852683          	lw	a3,24(a0)
 22c:	01c52303          	lw	t1,28(a0)
 230:	2a1001d3          	fmin.d	ft3,ft0,ft1
 234:	00353027          	fsd	ft3,0(a0)
 238:	00452383          	lw	t2,4(a0)
 23c:	00052503          	lw	a0,0(a0)
 240:	001015f3          	fsflags	a1,zero
 244:	00000613          	li	a2,0
 248:	48d51063          	bne	a0,a3,6c8 <fail>
 24c:	46731e63          	bne	t1,t2,6c8 <fail>
 250:	46c59c63          	bne	a1,a2,6c8 <fail>

00000254 <test_6>:
 254:	00600193          	li	gp,6
 258:	00002e17          	auipc	t3,0x2
 25c:	fe8e0e13          	addi	t3,t3,-24 # 2240 <begin_signature>
 260:	003e2c23          	sw	gp,24(t3)
 264:	00002517          	auipc	a0,0x2
 268:	e1c50513          	addi	a0,a0,-484 # 2080 <test_6_data>
 26c:	00053007          	fld	ft0,0(a0)
 270:	00853087          	fld	ft1,8(a0)
 274:	01053107          	fld	ft2,16(a0)
 278:	01852683          	lw	a3,24(a0)
 27c:	01c52303          	lw	t1,28(a0)
 280:	2a1001d3          	fmin.d	ft3,ft0,ft1
 284:	00353027          	fsd	ft3,0(a0)
 288:	00452383          	lw	t2,4(a0)
 28c:	00052503          	lw	a0,0(a0)
 290:	001015f3          	fsflags	a1,zero
 294:	00000613          	li	a2,0
 298:	42d51863          	bne	a0,a3,6c8 <fail>
 29c:	42731663          	bne	t1,t2,6c8 <fail>
 2a0:	42c59463          	bne	a1,a2,6c8 <fail>

000002a4 <test_7>:
 2a4:	00700193          	li	gp,7
 2a8:	00002e17          	auipc	t3,0x2
 2ac:	f98e0e13          	addi	t3,t3,-104 # 2240 <begin_signature>
 2b0:	003e2e23          	sw	gp,28(t3)
 2b4:	00002517          	auipc	a0,0x2
 2b8:	dec50513          	addi	a0,a0,-532 # 20a0 <test_7_data>
 2bc:	00053007          	fld	ft0,0(a0)
 2c0:	00853087          	fld	ft1,8(a0)
 2c4:	01053107          	fld	ft2,16(a0)
 2c8:	01852683          	lw	a3,24(a0)
 2cc:	01c52303          	lw	t1,28(a0)
 2d0:	2a1001d3          	fmin.d	ft3,ft0,ft1
 2d4:	00353027          	fsd	ft3,0(a0)
 2d8:	00452383          	lw	t2,4(a0)
 2dc:	00052503          	lw	a0,0(a0)
 2e0:	001015f3          	fsflags	a1,zero
 2e4:	00000613          	li	a2,0
 2e8:	3ed51063          	bne	a0,a3,6c8 <fail>
 2ec:	3c731e63          	bne	t1,t2,6c8 <fail>
 2f0:	3cc59c63          	bne	a1,a2,6c8 <fail>

000002f4 <test_12>:
 2f4:	00c00193          	li	gp,12
 2f8:	00002e17          	auipc	t3,0x2
 2fc:	f48e0e13          	addi	t3,t3,-184 # 2240 <begin_signature>
 300:	023e2823          	sw	gp,48(t3)
 304:	00002517          	auipc	a0,0x2
 308:	dbc50513          	addi	a0,a0,-580 # 20c0 <test_12_data>
 30c:	00053007          	fld	ft0,0(a0)
 310:	00853087          	fld	ft1,8(a0)
 314:	01053107          	fld	ft2,16(a0)
 318:	01852683          	lw	a3,24(a0)
 31c:	01c52303          	lw	t1,28(a0)
 320:	2a1011d3          	fmax.d	ft3,ft0,ft1
 324:	00353027          	fsd	ft3,0(a0)
 328:	00452383          	lw	t2,4(a0)
 32c:	00052503          	lw	a0,0(a0)
 330:	001015f3          	fsflags	a1,zero
 334:	00000613          	li	a2,0
 338:	38d51863          	bne	a0,a3,6c8 <fail>
 33c:	38731663          	bne	t1,t2,6c8 <fail>
 340:	38c59463          	bne	a1,a2,6c8 <fail>

00000344 <test_13>:
 344:	00d00193          	li	gp,13
 348:	00002e17          	auipc	t3,0x2
 34c:	ef8e0e13          	addi	t3,t3,-264 # 2240 <begin_signature>
 350:	023e2a23          	sw	gp,52(t3)
 354:	00002517          	auipc	a0,0x2
 358:	d8c50513          	addi	a0,a0,-628 # 20e0 <test_13_data>
 35c:	00053007          	fld	ft0,0(a0)
 360:	00853087          	fld	ft1,8(a0)
 364:	01053107          	fld	ft2,16(a0)
 368:	01852683          	lw	a3,24(a0)
 36c:	01c52303          	lw	t1,28(a0)
 370:	2a1011d3          	fmax.d	ft3,ft0,ft1
 374:	00353027          	fsd	ft3,0(a0)
 378:	00452383          	lw	t2,4(a0)
 37c:	00052503          	lw	a0,0(a0)
 380:	001015f3          	fsflags	a1,zero
 384:	00000613          	li	a2,0
 388:	34d51063          	bne	a0,a3,6c8 <fail>
 38c:	32731e63          	bne	t1,t2,6c8 <fail>
 390:	32c59c63          	bne	a1,a2,6c8 <fail>

00000394 <test_14>:
 394:	00e00193          	li	gp,14
 398:	00002e17          	auipc	t3,0x2
 39c:	ea8e0e13          	addi	t3,t3,-344 # 2240 <begin_signature>
 3a0:	023e2c23          	sw	gp,56(t3)
 3a4:	00002517          	auipc	a0,0x2
 3a8:	d5c50513          	addi	a0,a0,-676 # 2100 <test_14_data>
 3ac:	00053007          	fld	ft0,0(a0)
 3b0:	00853087          	fld	ft1,8(a0)
 3b4:	01053107          	fld	ft2,16(a0)
 3b8:	01852683          	lw	a3,24(a0)
 3bc:	01c52303          	lw	t1,28(a0)
 3c0:	2a1011d3          	fmax.d	ft3,ft0,ft1
 3c4:	00353027          	fsd	ft3,0(a0)
 3c8:	00452383          	lw	t2,4(a0)
 3cc:	00052503          	lw	a0,0(a0)
 3d0:	001015f3          	fsflags	a1,zero
 3d4:	00000613          	li	a2,0
 3d8:	2ed51863          	bne	a0,a3,6c8 <fail>
 3dc:	2e731663          	bne	t1,t2,6c8 <fail>
 3e0:	2ec59463          	bne	a1,a2,6c8 <fail>

000003e4 <test_15>:
 3e4:	00f00193          	li	gp,15
 3e8:	00002e17          	auipc	t3,0x2
 3ec:	e58e0e13          	addi	t3,t3,-424 # 2240 <begin_signature>
 3f0:	023e2e23          	sw	gp,60(t3)
 3f4:	00002517          	auipc	a0,0x2
 3f8:	d2c50513          	addi	a0,a0,-724 # 2120 <test_15_data>
 3fc:	00053007          	fld	ft0,0(a0)
 400:	00853087          	fld	ft1,8(a0)
 404:	01053107          	fld	ft2,16(a0)
 408:	01852683          	lw	a3,24(a0)
 40c:	01c52303          	lw	t1,28(a0)
 410:	2a1011d3          	fmax.d	ft3,ft0,ft1
 414:	00353027          	fsd	ft3,0(a0)
 418:	00452383          	lw	t2,4(a0)
 41c:	00052503          	lw	a0,0(a0)
 420:	001015f3          	fsflags	a1,zero
 424:	00000613          	li	a2,0
 428:	2ad51063          	bne	a0,a3,6c8 <fail>
 42c:	28731e63          	bne	t1,t2,6c8 <fail>
 430:	28c59c63          	bne	a1,a2,6c8 <fail>

00000434 <test_16>:
 434:	01000193          	li	gp,16
 438:	00002e17          	auipc	t3,0x2
 43c:	e08e0e13          	addi	t3,t3,-504 # 2240 <begin_signature>
 440:	043e2023          	sw	gp,64(t3)
 444:	00002517          	auipc	a0,0x2
 448:	cfc50513          	addi	a0,a0,-772 # 2140 <test_16_data>
 44c:	00053007          	fld	ft0,0(a0)
 450:	00853087          	fld	ft1,8(a0)
 454:	01053107          	fld	ft2,16(a0)
 458:	01852683          	lw	a3,24(a0)
 45c:	01c52303          	lw	t1,28(a0)
 460:	2a1011d3          	fmax.d	ft3,ft0,ft1
 464:	00353027          	fsd	ft3,0(a0)
 468:	00452383          	lw	t2,4(a0)
 46c:	00052503          	lw	a0,0(a0)
 470:	001015f3          	fsflags	a1,zero
 474:	00000613          	li	a2,0
 478:	24d51863          	bne	a0,a3,6c8 <fail>
 47c:	24731663          	bne	t1,t2,6c8 <fail>
 480:	24c59463          	bne	a1,a2,6c8 <fail>

00000484 <test_17>:
 484:	01100193          	li	gp,17
 488:	00002e17          	auipc	t3,0x2
 48c:	db8e0e13          	addi	t3,t3,-584 # 2240 <begin_signature>
 490:	043e2223          	sw	gp,68(t3)
 494:	00002517          	auipc	a0,0x2
 498:	ccc50513          	addi	a0,a0,-820 # 2160 <test_17_data>
 49c:	00053007          	fld	ft0,0(a0)
 4a0:	00853087          	fld	ft1,8(a0)
 4a4:	01053107          	fld	ft2,16(a0)
 4a8:	01852683          	lw	a3,24(a0)
 4ac:	01c52303          	lw	t1,28(a0)
 4b0:	2a1011d3          	fmax.d	ft3,ft0,ft1
 4b4:	00353027          	fsd	ft3,0(a0)
 4b8:	00452383          	lw	t2,4(a0)
 4bc:	00052503          	lw	a0,0(a0)
 4c0:	001015f3          	fsflags	a1,zero
 4c4:	00000613          	li	a2,0
 4c8:	20d51063          	bne	a0,a3,6c8 <fail>
 4cc:	1e731e63          	bne	t1,t2,6c8 <fail>
 4d0:	1ec59c63          	bne	a1,a2,6c8 <fail>

000004d4 <test_20>:
 4d4:	01400193          	li	gp,20
 4d8:	00002e17          	auipc	t3,0x2
 4dc:	d68e0e13          	addi	t3,t3,-664 # 2240 <begin_signature>
 4e0:	043e2823          	sw	gp,80(t3)
 4e4:	00002517          	auipc	a0,0x2
 4e8:	c9c50513          	addi	a0,a0,-868 # 2180 <test_20_data>
 4ec:	00053007          	fld	ft0,0(a0)
 4f0:	00853087          	fld	ft1,8(a0)
 4f4:	01053107          	fld	ft2,16(a0)
 4f8:	01852683          	lw	a3,24(a0)
 4fc:	01c52303          	lw	t1,28(a0)
 500:	2a1011d3          	fmax.d	ft3,ft0,ft1
 504:	00353027          	fsd	ft3,0(a0)
 508:	00452383          	lw	t2,4(a0)
 50c:	00052503          	lw	a0,0(a0)
 510:	001015f3          	fsflags	a1,zero
 514:	01000613          	li	a2,16
 518:	1ad51863          	bne	a0,a3,6c8 <fail>
 51c:	1a731663          	bne	t1,t2,6c8 <fail>
 520:	1ac59463          	bne	a1,a2,6c8 <fail>

00000524 <test_21>:
 524:	01500193          	li	gp,21
 528:	00002e17          	auipc	t3,0x2
 52c:	d18e0e13          	addi	t3,t3,-744 # 2240 <begin_signature>
 530:	043e2a23          	sw	gp,84(t3)
 534:	00002517          	auipc	a0,0x2
 538:	c6c50513          	addi	a0,a0,-916 # 21a0 <test_21_data>
 53c:	00053007          	fld	ft0,0(a0)
 540:	00853087          	fld	ft1,8(a0)
 544:	01053107          	fld	ft2,16(a0)
 548:	01852683          	lw	a3,24(a0)
 54c:	01c52303          	lw	t1,28(a0)
 550:	2a1011d3          	fmax.d	ft3,ft0,ft1
 554:	00353027          	fsd	ft3,0(a0)
 558:	00452383          	lw	t2,4(a0)
 55c:	00052503          	lw	a0,0(a0)
 560:	001015f3          	fsflags	a1,zero
 564:	00000613          	li	a2,0
 568:	16d51063          	bne	a0,a3,6c8 <fail>
 56c:	14731e63          	bne	t1,t2,6c8 <fail>
 570:	14c59c63          	bne	a1,a2,6c8 <fail>

00000574 <test_30>:
 574:	01e00193          	li	gp,30
 578:	00002e17          	auipc	t3,0x2
 57c:	cc8e0e13          	addi	t3,t3,-824 # 2240 <begin_signature>
 580:	063e2c23          	sw	gp,120(t3)
 584:	00002517          	auipc	a0,0x2
 588:	c3c50513          	addi	a0,a0,-964 # 21c0 <test_30_data>
 58c:	00053007          	fld	ft0,0(a0)
 590:	00853087          	fld	ft1,8(a0)
 594:	01053107          	fld	ft2,16(a0)
 598:	01852683          	lw	a3,24(a0)
 59c:	01c52303          	lw	t1,28(a0)
 5a0:	2a1001d3          	fmin.d	ft3,ft0,ft1
 5a4:	00353027          	fsd	ft3,0(a0)
 5a8:	00452383          	lw	t2,4(a0)
 5ac:	00052503          	lw	a0,0(a0)
 5b0:	001015f3          	fsflags	a1,zero
 5b4:	00000613          	li	a2,0
 5b8:	10d51863          	bne	a0,a3,6c8 <fail>
 5bc:	10731663          	bne	t1,t2,6c8 <fail>
 5c0:	10c59463          	bne	a1,a2,6c8 <fail>

000005c4 <test_31>:
 5c4:	01f00193          	li	gp,31
 5c8:	00002e17          	auipc	t3,0x2
 5cc:	c78e0e13          	addi	t3,t3,-904 # 2240 <begin_signature>
 5d0:	063e2e23          	sw	gp,124(t3)
 5d4:	00002517          	auipc	a0,0x2
 5d8:	c0c50513          	addi	a0,a0,-1012 # 21e0 <test_31_data>
 5dc:	00053007          	fld	ft0,0(a0)
 5e0:	00853087          	fld	ft1,8(a0)
 5e4:	01053107          	fld	ft2,16(a0)
 5e8:	01852683          	lw	a3,24(a0)
 5ec:	01c52303          	lw	t1,28(a0)
 5f0:	2a1001d3          	fmin.d	ft3,ft0,ft1
 5f4:	00353027          	fsd	ft3,0(a0)
 5f8:	00452383          	lw	t2,4(a0)
 5fc:	00052503          	lw	a0,0(a0)
 600:	001015f3          	fsflags	a1,zero
 604:	00000613          	li	a2,0
 608:	0cd51063          	bne	a0,a3,6c8 <fail>
 60c:	0a731e63          	bne	t1,t2,6c8 <fail>
 610:	0ac59c63          	bne	a1,a2,6c8 <fail>

00000614 <test_32>:
 614:	02000193          	li	gp,32
 618:	00002e17          	auipc	t3,0x2
 61c:	c28e0e13          	addi	t3,t3,-984 # 2240 <begin_signature>
 620:	083e2023          	sw	gp,128(t3)
 624:	00002517          	auipc	a0,0x2
 628:	bdc50513          	addi	a0,a0,-1060 # 2200 <test_32_data>
 62c:	00053007          	fld	ft0,0(a0)
 630:	00853087          	fld	ft1,8(a0)
 634:	01053107          	fld	ft2,16(a0)
 638:	01852683          	lw	a3,24(a0)
 63c:	01c52303          	lw	t1,28(a0)
 640:	2a1011d3          	fmax.d	ft3,ft0,ft1
 644:	00353027          	fsd	ft3,0(a0)
 648:	00452383          	lw	t2,4(a0)
 64c:	00052503          	lw	a0,0(a0)
 650:	001015f3          	fsflags	a1,zero
 654:	00000613          	li	a2,0
 658:	06d51863          	bne	a0,a3,6c8 <fail>
 65c:	06731663          	bne	t1,t2,6c8 <fail>
 660:	06c59463          	bne	a1,a2,6c8 <fail>

00000664 <test_33>:
 664:	02100193          	li	gp,33
 668:	00002e17          	auipc	t3,0x2
 66c:	bd8e0e13          	addi	t3,t3,-1064 # 2240 <begin_signature>
 670:	083e2223          	sw	gp,132(t3)
 674:	00002517          	auipc	a0,0x2
 678:	bac50513          	addi	a0,a0,-1108 # 2220 <test_33_data>
 67c:	00053007          	fld	ft0,0(a0)
 680:	00853087          	fld	ft1,8(a0)
 684:	01053107          	fld	ft2,16(a0)
 688:	01852683          	lw	a3,24(a0)
 68c:	01c52303          	lw	t1,28(a0)
 690:	2a1011d3          	fmax.d	ft3,ft0,ft1
 694:	00353027          	fsd	ft3,0(a0)
 698:	00452383          	lw	t2,4(a0)
 69c:	00052503          	lw	a0,0(a0)
 6a0:	001015f3          	fsflags	a1,zero
 6a4:	00000613          	li	a2,0
 6a8:	02d51063          	bne	a0,a3,6c8 <fail>
 6ac:	00731e63          	bne	t1,t2,6c8 <fail>
 6b0:	00c59c63          	bne	a1,a2,6c8 <fail>
 6b4:	02200193          	li	gp,34
 6b8:	00002e17          	auipc	t3,0x2
 6bc:	b88e0e13          	addi	t3,t3,-1144 # 2240 <begin_signature>
 6c0:	083e2423          	sw	gp,136(t3)
 6c4:	00301e63          	bne	zero,gp,6e0 <pass>

000006c8 <fail>:
 6c8:	0ff0000f          	fence
 6cc:	00100193          	li	gp,1
 6d0:	00002e17          	auipc	t3,0x2
 6d4:	b70e0e13          	addi	t3,t3,-1168 # 2240 <begin_signature>
 6d8:	003e2023          	sw	gp,0(t3)
 6dc:	00000073          	ecall

000006e0 <pass>:
 6e0:	0ff0000f          	fence
 6e4:	00100193          	li	gp,1
 6e8:	00002e17          	auipc	t3,0x2
 6ec:	b58e0e13          	addi	t3,t3,-1192 # 2240 <begin_signature>
 6f0:	003e2023          	sw	gp,0(t3)
 6f4:	00000073          	ecall

000006f8 <end_testcode>:
 6f8:	c0001073          	unimp
	...

Disassembly of section .tohost:

00001000 <tohost>:
	...

00001100 <fromhost>:
	...
