
/home/ubuntu/Desktop/riscv-compliance-master/work/rv32ui/bgeu.elf：     文件格式 elf32-littleriscv


Disassembly of section .text.init:

00000000 <_start>:
   0:	04c0006f          	j	4c <reset_vector>

00000004 <trap_vector>:
   4:	34202f73          	csrr	t5,mcause
   8:	00800f93          	li	t6,8
   c:	03ff0a63          	beq	t5,t6,40 <write_tohost>
  10:	00900f93          	li	t6,9
  14:	03ff0663          	beq	t5,t6,40 <write_tohost>
  18:	00b00f93          	li	t6,11
  1c:	03ff0263          	beq	t5,t6,40 <write_tohost>
  20:	00000f17          	auipc	t5,0x0
  24:	fe0f0f13          	addi	t5,t5,-32 # 0 <_start>
  28:	000f0463          	beqz	t5,30 <trap_vector+0x2c>
  2c:	000f0067          	jr	t5
  30:	34202f73          	csrr	t5,mcause
  34:	000f5463          	bgez	t5,3c <handle_exception>
  38:	0040006f          	j	3c <handle_exception>

0000003c <handle_exception>:
  3c:	5391e193          	ori	gp,gp,1337

00000040 <write_tohost>:
  40:	00001f17          	auipc	t5,0x1
  44:	fc3f2023          	sw	gp,-64(t5) # 1000 <tohost>
  48:	ff9ff06f          	j	40 <write_tohost>

0000004c <reset_vector>:
  4c:	f1402573          	csrr	a0,mhartid
  50:	00051063          	bnez	a0,50 <reset_vector+0x4>
  54:	00000297          	auipc	t0,0x0
  58:	01028293          	addi	t0,t0,16 # 64 <reset_vector+0x18>
  5c:	30529073          	csrw	mtvec,t0
  60:	18005073          	csrwi	satp,0
  64:	00000297          	auipc	t0,0x0
  68:	01c28293          	addi	t0,t0,28 # 80 <reset_vector+0x34>
  6c:	30529073          	csrw	mtvec,t0
  70:	fff00293          	li	t0,-1
  74:	3b029073          	csrw	pmpaddr0,t0
  78:	01f00293          	li	t0,31
  7c:	3a029073          	csrw	pmpcfg0,t0
  80:	00000297          	auipc	t0,0x0
  84:	01828293          	addi	t0,t0,24 # 98 <reset_vector+0x4c>
  88:	30529073          	csrw	mtvec,t0
  8c:	30205073          	csrwi	medeleg,0
  90:	30305073          	csrwi	mideleg,0
  94:	30405073          	csrwi	mie,0
  98:	00000193          	li	gp,0
  9c:	00000297          	auipc	t0,0x0
  a0:	f6828293          	addi	t0,t0,-152 # 4 <trap_vector>
  a4:	30529073          	csrw	mtvec,t0
  a8:	00100513          	li	a0,1
  ac:	01f51513          	slli	a0,a0,0x1f
  b0:	00054e63          	bltz	a0,cc <reset_vector+0x80>
  b4:	0ff0000f          	fence
  b8:	00100193          	li	gp,1
  bc:	00002e17          	auipc	t3,0x2
  c0:	f44e0e13          	addi	t3,t3,-188 # 2000 <begin_signature>
  c4:	003e2023          	sw	gp,0(t3)
  c8:	00000073          	ecall
  cc:	00000297          	auipc	t0,0x0
  d0:	f3428293          	addi	t0,t0,-204 # 0 <_start>
  d4:	00028e63          	beqz	t0,f0 <reset_vector+0xa4>
  d8:	10529073          	csrw	stvec,t0
  dc:	0000b2b7          	lui	t0,0xb
  e0:	10928293          	addi	t0,t0,265 # b109 <_end+0x8f05>
  e4:	30229073          	csrw	medeleg,t0
  e8:	30202373          	csrr	t1,medeleg
  ec:	f46298e3          	bne	t0,t1,3c <handle_exception>
  f0:	30005073          	csrwi	mstatus,0
  f4:	00000297          	auipc	t0,0x0
  f8:	01428293          	addi	t0,t0,20 # 108 <begin_testcode>
  fc:	34129073          	csrw	mepc,t0
 100:	f1402573          	csrr	a0,mhartid
 104:	30200073          	mret

00000108 <begin_testcode>:
 108:	00200193          	li	gp,2
 10c:	00002e17          	auipc	t3,0x2
 110:	ef4e0e13          	addi	t3,t3,-268 # 2000 <begin_signature>
 114:	003e2423          	sw	gp,8(t3)
 118:	00000093          	li	ra,0
 11c:	00000113          	li	sp,0
 120:	0020f663          	bleu	sp,ra,12c <begin_testcode+0x24>
 124:	44301663          	bne	zero,gp,570 <fail>
 128:	00301663          	bne	zero,gp,134 <test_3>
 12c:	fe20fee3          	bleu	sp,ra,128 <begin_testcode+0x20>
 130:	44301063          	bne	zero,gp,570 <fail>

00000134 <test_3>:
 134:	00300193          	li	gp,3
 138:	00002e17          	auipc	t3,0x2
 13c:	ec8e0e13          	addi	t3,t3,-312 # 2000 <begin_signature>
 140:	003e2623          	sw	gp,12(t3)
 144:	00100093          	li	ra,1
 148:	00100113          	li	sp,1
 14c:	0020f663          	bleu	sp,ra,158 <test_3+0x24>
 150:	42301063          	bne	zero,gp,570 <fail>
 154:	00301663          	bne	zero,gp,160 <test_4>
 158:	fe20fee3          	bleu	sp,ra,154 <test_3+0x20>
 15c:	40301a63          	bne	zero,gp,570 <fail>

00000160 <test_4>:
 160:	00400193          	li	gp,4
 164:	00002e17          	auipc	t3,0x2
 168:	e9ce0e13          	addi	t3,t3,-356 # 2000 <begin_signature>
 16c:	003e2823          	sw	gp,16(t3)
 170:	fff00093          	li	ra,-1
 174:	fff00113          	li	sp,-1
 178:	0020f663          	bleu	sp,ra,184 <test_4+0x24>
 17c:	3e301a63          	bne	zero,gp,570 <fail>
 180:	00301663          	bne	zero,gp,18c <test_5>
 184:	fe20fee3          	bleu	sp,ra,180 <test_4+0x20>
 188:	3e301463          	bne	zero,gp,570 <fail>

0000018c <test_5>:
 18c:	00500193          	li	gp,5
 190:	00002e17          	auipc	t3,0x2
 194:	e70e0e13          	addi	t3,t3,-400 # 2000 <begin_signature>
 198:	003e2a23          	sw	gp,20(t3)
 19c:	00100093          	li	ra,1
 1a0:	00000113          	li	sp,0
 1a4:	0020f663          	bleu	sp,ra,1b0 <test_5+0x24>
 1a8:	3c301463          	bne	zero,gp,570 <fail>
 1ac:	00301663          	bne	zero,gp,1b8 <test_6>
 1b0:	fe20fee3          	bleu	sp,ra,1ac <test_5+0x20>
 1b4:	3a301e63          	bne	zero,gp,570 <fail>

000001b8 <test_6>:
 1b8:	00600193          	li	gp,6
 1bc:	00002e17          	auipc	t3,0x2
 1c0:	e44e0e13          	addi	t3,t3,-444 # 2000 <begin_signature>
 1c4:	003e2c23          	sw	gp,24(t3)
 1c8:	fff00093          	li	ra,-1
 1cc:	ffe00113          	li	sp,-2
 1d0:	0020f663          	bleu	sp,ra,1dc <test_6+0x24>
 1d4:	38301e63          	bne	zero,gp,570 <fail>
 1d8:	00301663          	bne	zero,gp,1e4 <test_7>
 1dc:	fe20fee3          	bleu	sp,ra,1d8 <test_6+0x20>
 1e0:	38301863          	bne	zero,gp,570 <fail>

000001e4 <test_7>:
 1e4:	00700193          	li	gp,7
 1e8:	00002e17          	auipc	t3,0x2
 1ec:	e18e0e13          	addi	t3,t3,-488 # 2000 <begin_signature>
 1f0:	003e2e23          	sw	gp,28(t3)
 1f4:	fff00093          	li	ra,-1
 1f8:	00000113          	li	sp,0
 1fc:	0020f663          	bleu	sp,ra,208 <test_7+0x24>
 200:	36301863          	bne	zero,gp,570 <fail>
 204:	00301663          	bne	zero,gp,210 <test_8>
 208:	fe20fee3          	bleu	sp,ra,204 <test_7+0x20>
 20c:	36301263          	bne	zero,gp,570 <fail>

00000210 <test_8>:
 210:	00800193          	li	gp,8
 214:	00002e17          	auipc	t3,0x2
 218:	dece0e13          	addi	t3,t3,-532 # 2000 <begin_signature>
 21c:	023e2023          	sw	gp,32(t3)
 220:	00000093          	li	ra,0
 224:	00100113          	li	sp,1
 228:	0020f463          	bleu	sp,ra,230 <test_8+0x20>
 22c:	00301463          	bne	zero,gp,234 <test_8+0x24>
 230:	34301063          	bne	zero,gp,570 <fail>
 234:	fe20fee3          	bleu	sp,ra,230 <test_8+0x20>

00000238 <test_9>:
 238:	00900193          	li	gp,9
 23c:	00002e17          	auipc	t3,0x2
 240:	dc4e0e13          	addi	t3,t3,-572 # 2000 <begin_signature>
 244:	023e2223          	sw	gp,36(t3)
 248:	ffe00093          	li	ra,-2
 24c:	fff00113          	li	sp,-1
 250:	0020f463          	bleu	sp,ra,258 <test_9+0x20>
 254:	00301463          	bne	zero,gp,25c <test_9+0x24>
 258:	30301c63          	bne	zero,gp,570 <fail>
 25c:	fe20fee3          	bleu	sp,ra,258 <test_9+0x20>

00000260 <test_10>:
 260:	00a00193          	li	gp,10
 264:	00002e17          	auipc	t3,0x2
 268:	d9ce0e13          	addi	t3,t3,-612 # 2000 <begin_signature>
 26c:	023e2423          	sw	gp,40(t3)
 270:	00000093          	li	ra,0
 274:	fff00113          	li	sp,-1
 278:	0020f463          	bleu	sp,ra,280 <test_10+0x20>
 27c:	00301463          	bne	zero,gp,284 <test_10+0x24>
 280:	2e301863          	bne	zero,gp,570 <fail>
 284:	fe20fee3          	bleu	sp,ra,280 <test_10+0x20>

00000288 <test_11>:
 288:	00b00193          	li	gp,11
 28c:	00002e17          	auipc	t3,0x2
 290:	d74e0e13          	addi	t3,t3,-652 # 2000 <begin_signature>
 294:	023e2623          	sw	gp,44(t3)
 298:	800000b7          	lui	ra,0x80000
 29c:	fff08093          	addi	ra,ra,-1 # 7fffffff <_end+0x7fffddfb>
 2a0:	80000137          	lui	sp,0x80000
 2a4:	0020f463          	bleu	sp,ra,2ac <test_11+0x24>
 2a8:	00301463          	bne	zero,gp,2b0 <test_11+0x28>
 2ac:	2c301263          	bne	zero,gp,570 <fail>
 2b0:	fe20fee3          	bleu	sp,ra,2ac <test_11+0x24>

000002b4 <test_12>:
 2b4:	00c00193          	li	gp,12
 2b8:	00002e17          	auipc	t3,0x2
 2bc:	d48e0e13          	addi	t3,t3,-696 # 2000 <begin_signature>
 2c0:	023e2823          	sw	gp,48(t3)
 2c4:	00000213          	li	tp,0
 2c8:	f00000b7          	lui	ra,0xf0000
 2cc:	fff08093          	addi	ra,ra,-1 # efffffff <_end+0xefffddfb>
 2d0:	f0000137          	lui	sp,0xf0000
 2d4:	2820fe63          	bleu	sp,ra,570 <fail>
 2d8:	00120213          	addi	tp,tp,1 # 1 <_start+0x1>
 2dc:	00200293          	li	t0,2
 2e0:	fe5214e3          	bne	tp,t0,2c8 <test_12+0x14>

000002e4 <test_13>:
 2e4:	00d00193          	li	gp,13
 2e8:	00002e17          	auipc	t3,0x2
 2ec:	d18e0e13          	addi	t3,t3,-744 # 2000 <begin_signature>
 2f0:	023e2a23          	sw	gp,52(t3)
 2f4:	00000213          	li	tp,0
 2f8:	f00000b7          	lui	ra,0xf0000
 2fc:	fff08093          	addi	ra,ra,-1 # efffffff <_end+0xefffddfb>
 300:	f0000137          	lui	sp,0xf0000
 304:	00000013          	nop
 308:	2620f463          	bleu	sp,ra,570 <fail>
 30c:	00120213          	addi	tp,tp,1 # 1 <_start+0x1>
 310:	00200293          	li	t0,2
 314:	fe5212e3          	bne	tp,t0,2f8 <test_13+0x14>

00000318 <test_14>:
 318:	00e00193          	li	gp,14
 31c:	00002e17          	auipc	t3,0x2
 320:	ce4e0e13          	addi	t3,t3,-796 # 2000 <begin_signature>
 324:	023e2c23          	sw	gp,56(t3)
 328:	00000213          	li	tp,0
 32c:	f00000b7          	lui	ra,0xf0000
 330:	fff08093          	addi	ra,ra,-1 # efffffff <_end+0xefffddfb>
 334:	f0000137          	lui	sp,0xf0000
 338:	00000013          	nop
 33c:	00000013          	nop
 340:	2220f863          	bleu	sp,ra,570 <fail>
 344:	00120213          	addi	tp,tp,1 # 1 <_start+0x1>
 348:	00200293          	li	t0,2
 34c:	fe5210e3          	bne	tp,t0,32c <test_14+0x14>

00000350 <test_15>:
 350:	00f00193          	li	gp,15
 354:	00002e17          	auipc	t3,0x2
 358:	cace0e13          	addi	t3,t3,-852 # 2000 <begin_signature>
 35c:	023e2e23          	sw	gp,60(t3)
 360:	00000213          	li	tp,0
 364:	f00000b7          	lui	ra,0xf0000
 368:	fff08093          	addi	ra,ra,-1 # efffffff <_end+0xefffddfb>
 36c:	00000013          	nop
 370:	f0000137          	lui	sp,0xf0000
 374:	1e20fe63          	bleu	sp,ra,570 <fail>
 378:	00120213          	addi	tp,tp,1 # 1 <_start+0x1>
 37c:	00200293          	li	t0,2
 380:	fe5212e3          	bne	tp,t0,364 <test_15+0x14>

00000384 <test_16>:
 384:	01000193          	li	gp,16
 388:	00002e17          	auipc	t3,0x2
 38c:	c78e0e13          	addi	t3,t3,-904 # 2000 <begin_signature>
 390:	043e2023          	sw	gp,64(t3)
 394:	00000213          	li	tp,0
 398:	f00000b7          	lui	ra,0xf0000
 39c:	fff08093          	addi	ra,ra,-1 # efffffff <_end+0xefffddfb>
 3a0:	00000013          	nop
 3a4:	f0000137          	lui	sp,0xf0000
 3a8:	00000013          	nop
 3ac:	1c20f263          	bleu	sp,ra,570 <fail>
 3b0:	00120213          	addi	tp,tp,1 # 1 <_start+0x1>
 3b4:	00200293          	li	t0,2
 3b8:	fe5210e3          	bne	tp,t0,398 <test_16+0x14>

000003bc <test_17>:
 3bc:	01100193          	li	gp,17
 3c0:	00002e17          	auipc	t3,0x2
 3c4:	c40e0e13          	addi	t3,t3,-960 # 2000 <begin_signature>
 3c8:	043e2223          	sw	gp,68(t3)
 3cc:	00000213          	li	tp,0
 3d0:	f00000b7          	lui	ra,0xf0000
 3d4:	fff08093          	addi	ra,ra,-1 # efffffff <_end+0xefffddfb>
 3d8:	00000013          	nop
 3dc:	00000013          	nop
 3e0:	f0000137          	lui	sp,0xf0000
 3e4:	1820f663          	bleu	sp,ra,570 <fail>
 3e8:	00120213          	addi	tp,tp,1 # 1 <_start+0x1>
 3ec:	00200293          	li	t0,2
 3f0:	fe5210e3          	bne	tp,t0,3d0 <test_17+0x14>

000003f4 <test_18>:
 3f4:	01200193          	li	gp,18
 3f8:	00002e17          	auipc	t3,0x2
 3fc:	c08e0e13          	addi	t3,t3,-1016 # 2000 <begin_signature>
 400:	043e2423          	sw	gp,72(t3)
 404:	00000213          	li	tp,0
 408:	f00000b7          	lui	ra,0xf0000
 40c:	fff08093          	addi	ra,ra,-1 # efffffff <_end+0xefffddfb>
 410:	f0000137          	lui	sp,0xf0000
 414:	1420fe63          	bleu	sp,ra,570 <fail>
 418:	00120213          	addi	tp,tp,1 # 1 <_start+0x1>
 41c:	00200293          	li	t0,2
 420:	fe5214e3          	bne	tp,t0,408 <test_18+0x14>

00000424 <test_19>:
 424:	01300193          	li	gp,19
 428:	00002e17          	auipc	t3,0x2
 42c:	bd8e0e13          	addi	t3,t3,-1064 # 2000 <begin_signature>
 430:	043e2623          	sw	gp,76(t3)
 434:	00000213          	li	tp,0
 438:	f00000b7          	lui	ra,0xf0000
 43c:	fff08093          	addi	ra,ra,-1 # efffffff <_end+0xefffddfb>
 440:	f0000137          	lui	sp,0xf0000
 444:	00000013          	nop
 448:	1220f463          	bleu	sp,ra,570 <fail>
 44c:	00120213          	addi	tp,tp,1 # 1 <_start+0x1>
 450:	00200293          	li	t0,2
 454:	fe5212e3          	bne	tp,t0,438 <test_19+0x14>

00000458 <test_20>:
 458:	01400193          	li	gp,20
 45c:	00002e17          	auipc	t3,0x2
 460:	ba4e0e13          	addi	t3,t3,-1116 # 2000 <begin_signature>
 464:	043e2823          	sw	gp,80(t3)
 468:	00000213          	li	tp,0
 46c:	f00000b7          	lui	ra,0xf0000
 470:	fff08093          	addi	ra,ra,-1 # efffffff <_end+0xefffddfb>
 474:	f0000137          	lui	sp,0xf0000
 478:	00000013          	nop
 47c:	00000013          	nop
 480:	0e20f863          	bleu	sp,ra,570 <fail>
 484:	00120213          	addi	tp,tp,1 # 1 <_start+0x1>
 488:	00200293          	li	t0,2
 48c:	fe5210e3          	bne	tp,t0,46c <test_20+0x14>

00000490 <test_21>:
 490:	01500193          	li	gp,21
 494:	00002e17          	auipc	t3,0x2
 498:	b6ce0e13          	addi	t3,t3,-1172 # 2000 <begin_signature>
 49c:	043e2a23          	sw	gp,84(t3)
 4a0:	00000213          	li	tp,0
 4a4:	f00000b7          	lui	ra,0xf0000
 4a8:	fff08093          	addi	ra,ra,-1 # efffffff <_end+0xefffddfb>
 4ac:	00000013          	nop
 4b0:	f0000137          	lui	sp,0xf0000
 4b4:	0a20fe63          	bleu	sp,ra,570 <fail>
 4b8:	00120213          	addi	tp,tp,1 # 1 <_start+0x1>
 4bc:	00200293          	li	t0,2
 4c0:	fe5212e3          	bne	tp,t0,4a4 <test_21+0x14>

000004c4 <test_22>:
 4c4:	01600193          	li	gp,22
 4c8:	00002e17          	auipc	t3,0x2
 4cc:	b38e0e13          	addi	t3,t3,-1224 # 2000 <begin_signature>
 4d0:	043e2c23          	sw	gp,88(t3)
 4d4:	00000213          	li	tp,0
 4d8:	f00000b7          	lui	ra,0xf0000
 4dc:	fff08093          	addi	ra,ra,-1 # efffffff <_end+0xefffddfb>
 4e0:	00000013          	nop
 4e4:	f0000137          	lui	sp,0xf0000
 4e8:	00000013          	nop
 4ec:	0820f263          	bleu	sp,ra,570 <fail>
 4f0:	00120213          	addi	tp,tp,1 # 1 <_start+0x1>
 4f4:	00200293          	li	t0,2
 4f8:	fe5210e3          	bne	tp,t0,4d8 <test_22+0x14>

000004fc <test_23>:
 4fc:	01700193          	li	gp,23
 500:	00002e17          	auipc	t3,0x2
 504:	b00e0e13          	addi	t3,t3,-1280 # 2000 <begin_signature>
 508:	043e2e23          	sw	gp,92(t3)
 50c:	00000213          	li	tp,0
 510:	f00000b7          	lui	ra,0xf0000
 514:	fff08093          	addi	ra,ra,-1 # efffffff <_end+0xefffddfb>
 518:	00000013          	nop
 51c:	00000013          	nop
 520:	f0000137          	lui	sp,0xf0000
 524:	0420f663          	bleu	sp,ra,570 <fail>
 528:	00120213          	addi	tp,tp,1 # 1 <_start+0x1>
 52c:	00200293          	li	t0,2
 530:	fe5210e3          	bne	tp,t0,510 <test_23+0x14>

00000534 <test_24>:
 534:	00100093          	li	ra,1
 538:	0000fa63          	bleu	zero,ra,54c <test_24+0x18>
 53c:	00108093          	addi	ra,ra,1
 540:	00108093          	addi	ra,ra,1
 544:	00108093          	addi	ra,ra,1
 548:	00108093          	addi	ra,ra,1
 54c:	00108093          	addi	ra,ra,1
 550:	00108093          	addi	ra,ra,1
 554:	00300e93          	li	t4,3
 558:	01800193          	li	gp,24
 55c:	00002e17          	auipc	t3,0x2
 560:	aa4e0e13          	addi	t3,t3,-1372 # 2000 <begin_signature>
 564:	061e2023          	sw	ra,96(t3)
 568:	01d09463          	bne	ra,t4,570 <fail>
 56c:	00301e63          	bne	zero,gp,588 <pass>

00000570 <fail>:
 570:	0ff0000f          	fence
 574:	00100193          	li	gp,1
 578:	00002e17          	auipc	t3,0x2
 57c:	a88e0e13          	addi	t3,t3,-1400 # 2000 <begin_signature>
 580:	003e2023          	sw	gp,0(t3)
 584:	00000073          	ecall

00000588 <pass>:
 588:	0ff0000f          	fence
 58c:	00100193          	li	gp,1
 590:	00002e17          	auipc	t3,0x2
 594:	a70e0e13          	addi	t3,t3,-1424 # 2000 <begin_signature>
 598:	003e2023          	sw	gp,0(t3)
 59c:	00000073          	ecall

000005a0 <end_testcode>:
 5a0:	c0001073          	unimp
	...

Disassembly of section .tohost:

00001000 <tohost>:
	...

00001100 <fromhost>:
	...
