
/home/ubuntu/Desktop/riscv-compliance-master/work/rv32ui/bne.elf：     文件格式 elf32-littleriscv


Disassembly of section .text.init:

00000000 <_start>:
   0:	04c0006f          	j	4c <reset_vector>

00000004 <trap_vector>:
   4:	34202f73          	csrr	t5,mcause
   8:	00800f93          	li	t6,8
   c:	03ff0a63          	beq	t5,t6,40 <write_tohost>
  10:	00900f93          	li	t6,9
  14:	03ff0663          	beq	t5,t6,40 <write_tohost>
  18:	00b00f93          	li	t6,11
  1c:	03ff0263          	beq	t5,t6,40 <write_tohost>
  20:	00000f17          	auipc	t5,0x0
  24:	fe0f0f13          	addi	t5,t5,-32 # 0 <_start>
  28:	000f0463          	beqz	t5,30 <trap_vector+0x2c>
  2c:	000f0067          	jr	t5
  30:	34202f73          	csrr	t5,mcause
  34:	000f5463          	bgez	t5,3c <handle_exception>
  38:	0040006f          	j	3c <handle_exception>

0000003c <handle_exception>:
  3c:	5391e193          	ori	gp,gp,1337

00000040 <write_tohost>:
  40:	00001f17          	auipc	t5,0x1
  44:	fc3f2023          	sw	gp,-64(t5) # 1000 <tohost>
  48:	ff9ff06f          	j	40 <write_tohost>

0000004c <reset_vector>:
  4c:	f1402573          	csrr	a0,mhartid
  50:	00051063          	bnez	a0,50 <reset_vector+0x4>
  54:	00000297          	auipc	t0,0x0
  58:	01028293          	addi	t0,t0,16 # 64 <reset_vector+0x18>
  5c:	30529073          	csrw	mtvec,t0
  60:	18005073          	csrwi	satp,0
  64:	00000297          	auipc	t0,0x0
  68:	01c28293          	addi	t0,t0,28 # 80 <reset_vector+0x34>
  6c:	30529073          	csrw	mtvec,t0
  70:	fff00293          	li	t0,-1
  74:	3b029073          	csrw	pmpaddr0,t0
  78:	01f00293          	li	t0,31
  7c:	3a029073          	csrw	pmpcfg0,t0
  80:	00000297          	auipc	t0,0x0
  84:	01828293          	addi	t0,t0,24 # 98 <reset_vector+0x4c>
  88:	30529073          	csrw	mtvec,t0
  8c:	30205073          	csrwi	medeleg,0
  90:	30305073          	csrwi	mideleg,0
  94:	30405073          	csrwi	mie,0
  98:	00000193          	li	gp,0
  9c:	00000297          	auipc	t0,0x0
  a0:	f6828293          	addi	t0,t0,-152 # 4 <trap_vector>
  a4:	30529073          	csrw	mtvec,t0
  a8:	00100513          	li	a0,1
  ac:	01f51513          	slli	a0,a0,0x1f
  b0:	00054e63          	bltz	a0,cc <reset_vector+0x80>
  b4:	0ff0000f          	fence
  b8:	00100193          	li	gp,1
  bc:	00002e17          	auipc	t3,0x2
  c0:	f44e0e13          	addi	t3,t3,-188 # 2000 <begin_signature>
  c4:	003e2023          	sw	gp,0(t3)
  c8:	00000073          	ecall
  cc:	00000297          	auipc	t0,0x0
  d0:	f3428293          	addi	t0,t0,-204 # 0 <_start>
  d4:	00028e63          	beqz	t0,f0 <reset_vector+0xa4>
  d8:	10529073          	csrw	stvec,t0
  dc:	0000b2b7          	lui	t0,0xb
  e0:	10928293          	addi	t0,t0,265 # b109 <_end+0x8f05>
  e4:	30229073          	csrw	medeleg,t0
  e8:	30202373          	csrr	t1,medeleg
  ec:	f46298e3          	bne	t0,t1,3c <handle_exception>
  f0:	30005073          	csrwi	mstatus,0
  f4:	00000297          	auipc	t0,0x0
  f8:	01428293          	addi	t0,t0,20 # 108 <begin_testcode>
  fc:	34129073          	csrw	mepc,t0
 100:	f1402573          	csrr	a0,mhartid
 104:	30200073          	mret

00000108 <begin_testcode>:
 108:	00200193          	li	gp,2
 10c:	00002e17          	auipc	t3,0x2
 110:	ef4e0e13          	addi	t3,t3,-268 # 2000 <begin_signature>
 114:	003e2423          	sw	gp,8(t3)
 118:	00000093          	li	ra,0
 11c:	00100113          	li	sp,1
 120:	00209663          	bne	ra,sp,12c <begin_testcode+0x24>
 124:	38301c63          	bne	zero,gp,4bc <fail>
 128:	00301663          	bne	zero,gp,134 <test_3>
 12c:	fe209ee3          	bne	ra,sp,128 <begin_testcode+0x20>
 130:	38301663          	bne	zero,gp,4bc <fail>

00000134 <test_3>:
 134:	00300193          	li	gp,3
 138:	00002e17          	auipc	t3,0x2
 13c:	ec8e0e13          	addi	t3,t3,-312 # 2000 <begin_signature>
 140:	003e2623          	sw	gp,12(t3)
 144:	00100093          	li	ra,1
 148:	00000113          	li	sp,0
 14c:	00209663          	bne	ra,sp,158 <test_3+0x24>
 150:	36301663          	bne	zero,gp,4bc <fail>
 154:	00301663          	bne	zero,gp,160 <test_4>
 158:	fe209ee3          	bne	ra,sp,154 <test_3+0x20>
 15c:	36301063          	bne	zero,gp,4bc <fail>

00000160 <test_4>:
 160:	00400193          	li	gp,4
 164:	00002e17          	auipc	t3,0x2
 168:	e9ce0e13          	addi	t3,t3,-356 # 2000 <begin_signature>
 16c:	003e2823          	sw	gp,16(t3)
 170:	fff00093          	li	ra,-1
 174:	00100113          	li	sp,1
 178:	00209663          	bne	ra,sp,184 <test_4+0x24>
 17c:	34301063          	bne	zero,gp,4bc <fail>
 180:	00301663          	bne	zero,gp,18c <test_5>
 184:	fe209ee3          	bne	ra,sp,180 <test_4+0x20>
 188:	32301a63          	bne	zero,gp,4bc <fail>

0000018c <test_5>:
 18c:	00500193          	li	gp,5
 190:	00002e17          	auipc	t3,0x2
 194:	e70e0e13          	addi	t3,t3,-400 # 2000 <begin_signature>
 198:	003e2a23          	sw	gp,20(t3)
 19c:	00100093          	li	ra,1
 1a0:	fff00113          	li	sp,-1
 1a4:	00209663          	bne	ra,sp,1b0 <test_5+0x24>
 1a8:	30301a63          	bne	zero,gp,4bc <fail>
 1ac:	00301663          	bne	zero,gp,1b8 <test_6>
 1b0:	fe209ee3          	bne	ra,sp,1ac <test_5+0x20>
 1b4:	30301463          	bne	zero,gp,4bc <fail>

000001b8 <test_6>:
 1b8:	00600193          	li	gp,6
 1bc:	00002e17          	auipc	t3,0x2
 1c0:	e44e0e13          	addi	t3,t3,-444 # 2000 <begin_signature>
 1c4:	003e2c23          	sw	gp,24(t3)
 1c8:	00000093          	li	ra,0
 1cc:	00000113          	li	sp,0
 1d0:	00209463          	bne	ra,sp,1d8 <test_6+0x20>
 1d4:	00301463          	bne	zero,gp,1dc <test_6+0x24>
 1d8:	2e301263          	bne	zero,gp,4bc <fail>
 1dc:	fe209ee3          	bne	ra,sp,1d8 <test_6+0x20>

000001e0 <test_7>:
 1e0:	00700193          	li	gp,7
 1e4:	00002e17          	auipc	t3,0x2
 1e8:	e1ce0e13          	addi	t3,t3,-484 # 2000 <begin_signature>
 1ec:	003e2e23          	sw	gp,28(t3)
 1f0:	00100093          	li	ra,1
 1f4:	00100113          	li	sp,1
 1f8:	00209463          	bne	ra,sp,200 <test_7+0x20>
 1fc:	00301463          	bne	zero,gp,204 <test_7+0x24>
 200:	2a301e63          	bne	zero,gp,4bc <fail>
 204:	fe209ee3          	bne	ra,sp,200 <test_7+0x20>

00000208 <test_8>:
 208:	00800193          	li	gp,8
 20c:	00002e17          	auipc	t3,0x2
 210:	df4e0e13          	addi	t3,t3,-524 # 2000 <begin_signature>
 214:	023e2023          	sw	gp,32(t3)
 218:	fff00093          	li	ra,-1
 21c:	fff00113          	li	sp,-1
 220:	00209463          	bne	ra,sp,228 <test_8+0x20>
 224:	00301463          	bne	zero,gp,22c <test_8+0x24>
 228:	28301a63          	bne	zero,gp,4bc <fail>
 22c:	fe209ee3          	bne	ra,sp,228 <test_8+0x20>

00000230 <test_9>:
 230:	00900193          	li	gp,9
 234:	00002e17          	auipc	t3,0x2
 238:	dcce0e13          	addi	t3,t3,-564 # 2000 <begin_signature>
 23c:	023e2223          	sw	gp,36(t3)
 240:	00000213          	li	tp,0
 244:	00000093          	li	ra,0
 248:	00000113          	li	sp,0
 24c:	26209863          	bne	ra,sp,4bc <fail>
 250:	00120213          	addi	tp,tp,1 # 1 <_start+0x1>
 254:	00200293          	li	t0,2
 258:	fe5216e3          	bne	tp,t0,244 <test_9+0x14>

0000025c <test_10>:
 25c:	00a00193          	li	gp,10
 260:	00002e17          	auipc	t3,0x2
 264:	da0e0e13          	addi	t3,t3,-608 # 2000 <begin_signature>
 268:	023e2423          	sw	gp,40(t3)
 26c:	00000213          	li	tp,0
 270:	00000093          	li	ra,0
 274:	00000113          	li	sp,0
 278:	00000013          	nop
 27c:	24209063          	bne	ra,sp,4bc <fail>
 280:	00120213          	addi	tp,tp,1 # 1 <_start+0x1>
 284:	00200293          	li	t0,2
 288:	fe5214e3          	bne	tp,t0,270 <test_10+0x14>

0000028c <test_11>:
 28c:	00b00193          	li	gp,11
 290:	00002e17          	auipc	t3,0x2
 294:	d70e0e13          	addi	t3,t3,-656 # 2000 <begin_signature>
 298:	023e2623          	sw	gp,44(t3)
 29c:	00000213          	li	tp,0
 2a0:	00000093          	li	ra,0
 2a4:	00000113          	li	sp,0
 2a8:	00000013          	nop
 2ac:	00000013          	nop
 2b0:	20209663          	bne	ra,sp,4bc <fail>
 2b4:	00120213          	addi	tp,tp,1 # 1 <_start+0x1>
 2b8:	00200293          	li	t0,2
 2bc:	fe5212e3          	bne	tp,t0,2a0 <test_11+0x14>

000002c0 <test_12>:
 2c0:	00c00193          	li	gp,12
 2c4:	00002e17          	auipc	t3,0x2
 2c8:	d3ce0e13          	addi	t3,t3,-708 # 2000 <begin_signature>
 2cc:	023e2823          	sw	gp,48(t3)
 2d0:	00000213          	li	tp,0
 2d4:	00000093          	li	ra,0
 2d8:	00000013          	nop
 2dc:	00000113          	li	sp,0
 2e0:	1c209e63          	bne	ra,sp,4bc <fail>
 2e4:	00120213          	addi	tp,tp,1 # 1 <_start+0x1>
 2e8:	00200293          	li	t0,2
 2ec:	fe5214e3          	bne	tp,t0,2d4 <test_12+0x14>

000002f0 <test_13>:
 2f0:	00d00193          	li	gp,13
 2f4:	00002e17          	auipc	t3,0x2
 2f8:	d0ce0e13          	addi	t3,t3,-756 # 2000 <begin_signature>
 2fc:	023e2a23          	sw	gp,52(t3)
 300:	00000213          	li	tp,0
 304:	00000093          	li	ra,0
 308:	00000013          	nop
 30c:	00000113          	li	sp,0
 310:	00000013          	nop
 314:	1a209463          	bne	ra,sp,4bc <fail>
 318:	00120213          	addi	tp,tp,1 # 1 <_start+0x1>
 31c:	00200293          	li	t0,2
 320:	fe5212e3          	bne	tp,t0,304 <test_13+0x14>

00000324 <test_14>:
 324:	00e00193          	li	gp,14
 328:	00002e17          	auipc	t3,0x2
 32c:	cd8e0e13          	addi	t3,t3,-808 # 2000 <begin_signature>
 330:	023e2c23          	sw	gp,56(t3)
 334:	00000213          	li	tp,0
 338:	00000093          	li	ra,0
 33c:	00000013          	nop
 340:	00000013          	nop
 344:	00000113          	li	sp,0
 348:	16209a63          	bne	ra,sp,4bc <fail>
 34c:	00120213          	addi	tp,tp,1 # 1 <_start+0x1>
 350:	00200293          	li	t0,2
 354:	fe5212e3          	bne	tp,t0,338 <test_14+0x14>

00000358 <test_15>:
 358:	00f00193          	li	gp,15
 35c:	00002e17          	auipc	t3,0x2
 360:	ca4e0e13          	addi	t3,t3,-860 # 2000 <begin_signature>
 364:	023e2e23          	sw	gp,60(t3)
 368:	00000213          	li	tp,0
 36c:	00000093          	li	ra,0
 370:	00000113          	li	sp,0
 374:	14209463          	bne	ra,sp,4bc <fail>
 378:	00120213          	addi	tp,tp,1 # 1 <_start+0x1>
 37c:	00200293          	li	t0,2
 380:	fe5216e3          	bne	tp,t0,36c <test_15+0x14>

00000384 <test_16>:
 384:	01000193          	li	gp,16
 388:	00002e17          	auipc	t3,0x2
 38c:	c78e0e13          	addi	t3,t3,-904 # 2000 <begin_signature>
 390:	043e2023          	sw	gp,64(t3)
 394:	00000213          	li	tp,0
 398:	00000093          	li	ra,0
 39c:	00000113          	li	sp,0
 3a0:	00000013          	nop
 3a4:	10209c63          	bne	ra,sp,4bc <fail>
 3a8:	00120213          	addi	tp,tp,1 # 1 <_start+0x1>
 3ac:	00200293          	li	t0,2
 3b0:	fe5214e3          	bne	tp,t0,398 <test_16+0x14>

000003b4 <test_17>:
 3b4:	01100193          	li	gp,17
 3b8:	00002e17          	auipc	t3,0x2
 3bc:	c48e0e13          	addi	t3,t3,-952 # 2000 <begin_signature>
 3c0:	043e2223          	sw	gp,68(t3)
 3c4:	00000213          	li	tp,0
 3c8:	00000093          	li	ra,0
 3cc:	00000113          	li	sp,0
 3d0:	00000013          	nop
 3d4:	00000013          	nop
 3d8:	0e209263          	bne	ra,sp,4bc <fail>
 3dc:	00120213          	addi	tp,tp,1 # 1 <_start+0x1>
 3e0:	00200293          	li	t0,2
 3e4:	fe5212e3          	bne	tp,t0,3c8 <test_17+0x14>

000003e8 <test_18>:
 3e8:	01200193          	li	gp,18
 3ec:	00002e17          	auipc	t3,0x2
 3f0:	c14e0e13          	addi	t3,t3,-1004 # 2000 <begin_signature>
 3f4:	043e2423          	sw	gp,72(t3)
 3f8:	00000213          	li	tp,0
 3fc:	00000093          	li	ra,0
 400:	00000013          	nop
 404:	00000113          	li	sp,0
 408:	0a209a63          	bne	ra,sp,4bc <fail>
 40c:	00120213          	addi	tp,tp,1 # 1 <_start+0x1>
 410:	00200293          	li	t0,2
 414:	fe5214e3          	bne	tp,t0,3fc <test_18+0x14>

00000418 <test_19>:
 418:	01300193          	li	gp,19
 41c:	00002e17          	auipc	t3,0x2
 420:	be4e0e13          	addi	t3,t3,-1052 # 2000 <begin_signature>
 424:	043e2623          	sw	gp,76(t3)
 428:	00000213          	li	tp,0
 42c:	00000093          	li	ra,0
 430:	00000013          	nop
 434:	00000113          	li	sp,0
 438:	00000013          	nop
 43c:	08209063          	bne	ra,sp,4bc <fail>
 440:	00120213          	addi	tp,tp,1 # 1 <_start+0x1>
 444:	00200293          	li	t0,2
 448:	fe5212e3          	bne	tp,t0,42c <test_19+0x14>

0000044c <test_20>:
 44c:	01400193          	li	gp,20
 450:	00002e17          	auipc	t3,0x2
 454:	bb0e0e13          	addi	t3,t3,-1104 # 2000 <begin_signature>
 458:	043e2823          	sw	gp,80(t3)
 45c:	00000213          	li	tp,0
 460:	00000093          	li	ra,0
 464:	00000013          	nop
 468:	00000013          	nop
 46c:	00000113          	li	sp,0
 470:	04209663          	bne	ra,sp,4bc <fail>
 474:	00120213          	addi	tp,tp,1 # 1 <_start+0x1>
 478:	00200293          	li	t0,2
 47c:	fe5212e3          	bne	tp,t0,460 <test_20+0x14>

00000480 <test_21>:
 480:	00100093          	li	ra,1
 484:	00009a63          	bnez	ra,498 <test_21+0x18>
 488:	00108093          	addi	ra,ra,1
 48c:	00108093          	addi	ra,ra,1
 490:	00108093          	addi	ra,ra,1
 494:	00108093          	addi	ra,ra,1
 498:	00108093          	addi	ra,ra,1
 49c:	00108093          	addi	ra,ra,1
 4a0:	00300e93          	li	t4,3
 4a4:	01500193          	li	gp,21
 4a8:	00002e17          	auipc	t3,0x2
 4ac:	b58e0e13          	addi	t3,t3,-1192 # 2000 <begin_signature>
 4b0:	041e2a23          	sw	ra,84(t3)
 4b4:	01d09463          	bne	ra,t4,4bc <fail>
 4b8:	00301e63          	bne	zero,gp,4d4 <pass>

000004bc <fail>:
 4bc:	0ff0000f          	fence
 4c0:	00100193          	li	gp,1
 4c4:	00002e17          	auipc	t3,0x2
 4c8:	b3ce0e13          	addi	t3,t3,-1220 # 2000 <begin_signature>
 4cc:	003e2023          	sw	gp,0(t3)
 4d0:	00000073          	ecall

000004d4 <pass>:
 4d4:	0ff0000f          	fence
 4d8:	00100193          	li	gp,1
 4dc:	00002e17          	auipc	t3,0x2
 4e0:	b24e0e13          	addi	t3,t3,-1244 # 2000 <begin_signature>
 4e4:	003e2023          	sw	gp,0(t3)
 4e8:	00000073          	ecall

000004ec <end_testcode>:
 4ec:	c0001073          	unimp
	...

Disassembly of section .tohost:

00001000 <tohost>:
	...

00001100 <fromhost>:
	...
