
/home/ubuntu/Desktop/riscv-compliance-master/work/rv32ui/lhu.elf：     文件格式 elf32-littleriscv


Disassembly of section .text.init:

00000000 <_start>:
   0:	04c0006f          	j	4c <reset_vector>

00000004 <trap_vector>:
   4:	34202f73          	csrr	t5,mcause
   8:	00800f93          	li	t6,8
   c:	03ff0a63          	beq	t5,t6,40 <write_tohost>
  10:	00900f93          	li	t6,9
  14:	03ff0663          	beq	t5,t6,40 <write_tohost>
  18:	00b00f93          	li	t6,11
  1c:	03ff0263          	beq	t5,t6,40 <write_tohost>
  20:	00000f17          	auipc	t5,0x0
  24:	fe0f0f13          	addi	t5,t5,-32 # 0 <_start>
  28:	000f0463          	beqz	t5,30 <trap_vector+0x2c>
  2c:	000f0067          	jr	t5
  30:	34202f73          	csrr	t5,mcause
  34:	000f5463          	bgez	t5,3c <handle_exception>
  38:	0040006f          	j	3c <handle_exception>

0000003c <handle_exception>:
  3c:	5391e193          	ori	gp,gp,1337

00000040 <write_tohost>:
  40:	00001f17          	auipc	t5,0x1
  44:	fc3f2023          	sw	gp,-64(t5) # 1000 <tohost>
  48:	ff9ff06f          	j	40 <write_tohost>

0000004c <reset_vector>:
  4c:	f1402573          	csrr	a0,mhartid
  50:	00051063          	bnez	a0,50 <reset_vector+0x4>
  54:	00000297          	auipc	t0,0x0
  58:	01028293          	addi	t0,t0,16 # 64 <reset_vector+0x18>
  5c:	30529073          	csrw	mtvec,t0
  60:	18005073          	csrwi	satp,0
  64:	00000297          	auipc	t0,0x0
  68:	01c28293          	addi	t0,t0,28 # 80 <reset_vector+0x34>
  6c:	30529073          	csrw	mtvec,t0
  70:	fff00293          	li	t0,-1
  74:	3b029073          	csrw	pmpaddr0,t0
  78:	01f00293          	li	t0,31
  7c:	3a029073          	csrw	pmpcfg0,t0
  80:	00000297          	auipc	t0,0x0
  84:	01828293          	addi	t0,t0,24 # 98 <reset_vector+0x4c>
  88:	30529073          	csrw	mtvec,t0
  8c:	30205073          	csrwi	medeleg,0
  90:	30305073          	csrwi	mideleg,0
  94:	30405073          	csrwi	mie,0
  98:	00000193          	li	gp,0
  9c:	00000297          	auipc	t0,0x0
  a0:	f6828293          	addi	t0,t0,-152 # 4 <trap_vector>
  a4:	30529073          	csrw	mtvec,t0
  a8:	00100513          	li	a0,1
  ac:	01f51513          	slli	a0,a0,0x1f
  b0:	00054e63          	bltz	a0,cc <reset_vector+0x80>
  b4:	0ff0000f          	fence
  b8:	00100193          	li	gp,1
  bc:	00002e17          	auipc	t3,0x2
  c0:	f54e0e13          	addi	t3,t3,-172 # 2010 <begin_signature>
  c4:	003e2023          	sw	gp,0(t3)
  c8:	00000073          	ecall
  cc:	00000297          	auipc	t0,0x0
  d0:	f3428293          	addi	t0,t0,-204 # 0 <_start>
  d4:	00028e63          	beqz	t0,f0 <reset_vector+0xa4>
  d8:	10529073          	csrw	stvec,t0
  dc:	0000b2b7          	lui	t0,0xb
  e0:	10928293          	addi	t0,t0,265 # b109 <_end+0x8f05>
  e4:	30229073          	csrw	medeleg,t0
  e8:	30202373          	csrr	t1,medeleg
  ec:	f46298e3          	bne	t0,t1,3c <handle_exception>
  f0:	30005073          	csrwi	mstatus,0
  f4:	00000297          	auipc	t0,0x0
  f8:	01428293          	addi	t0,t0,20 # 108 <begin_testcode>
  fc:	34129073          	csrw	mepc,t0
 100:	f1402573          	csrr	a0,mhartid
 104:	30200073          	mret

00000108 <begin_testcode>:
 108:	00002097          	auipc	ra,0x2
 10c:	ef808093          	addi	ra,ra,-264 # 2000 <tdat>
 110:	0000df03          	lhu	t5,0(ra)
 114:	0ff00e93          	li	t4,255
 118:	00200193          	li	gp,2
 11c:	00002e17          	auipc	t3,0x2
 120:	ef4e0e13          	addi	t3,t3,-268 # 2010 <begin_signature>
 124:	01ee2423          	sw	t5,8(t3)
 128:	33df1c63          	bne	t5,t4,460 <fail>

0000012c <test_3>:
 12c:	00002097          	auipc	ra,0x2
 130:	ed408093          	addi	ra,ra,-300 # 2000 <tdat>
 134:	0020df03          	lhu	t5,2(ra)
 138:	00010eb7          	lui	t4,0x10
 13c:	f00e8e93          	addi	t4,t4,-256 # ff00 <_end+0xdcfc>
 140:	00300193          	li	gp,3
 144:	00002e17          	auipc	t3,0x2
 148:	ecce0e13          	addi	t3,t3,-308 # 2010 <begin_signature>
 14c:	01ee2623          	sw	t5,12(t3)
 150:	31df1863          	bne	t5,t4,460 <fail>

00000154 <test_4>:
 154:	00002097          	auipc	ra,0x2
 158:	eac08093          	addi	ra,ra,-340 # 2000 <tdat>
 15c:	0040df03          	lhu	t5,4(ra)
 160:	00001eb7          	lui	t4,0x1
 164:	ff0e8e93          	addi	t4,t4,-16 # ff0 <end_testcode+0xb60>
 168:	00400193          	li	gp,4
 16c:	00002e17          	auipc	t3,0x2
 170:	ea4e0e13          	addi	t3,t3,-348 # 2010 <begin_signature>
 174:	01ee2823          	sw	t5,16(t3)
 178:	2fdf1463          	bne	t5,t4,460 <fail>

0000017c <test_5>:
 17c:	00002097          	auipc	ra,0x2
 180:	e8408093          	addi	ra,ra,-380 # 2000 <tdat>
 184:	0060df03          	lhu	t5,6(ra)
 188:	0000feb7          	lui	t4,0xf
 18c:	00fe8e93          	addi	t4,t4,15 # f00f <_end+0xce0b>
 190:	00500193          	li	gp,5
 194:	00002e17          	auipc	t3,0x2
 198:	e7ce0e13          	addi	t3,t3,-388 # 2010 <begin_signature>
 19c:	01ee2a23          	sw	t5,20(t3)
 1a0:	2ddf1063          	bne	t5,t4,460 <fail>

000001a4 <test_6>:
 1a4:	00002097          	auipc	ra,0x2
 1a8:	e6208093          	addi	ra,ra,-414 # 2006 <tdat4>
 1ac:	ffa0df03          	lhu	t5,-6(ra)
 1b0:	0ff00e93          	li	t4,255
 1b4:	00600193          	li	gp,6
 1b8:	00002e17          	auipc	t3,0x2
 1bc:	e58e0e13          	addi	t3,t3,-424 # 2010 <begin_signature>
 1c0:	01ee2c23          	sw	t5,24(t3)
 1c4:	29df1e63          	bne	t5,t4,460 <fail>

000001c8 <test_7>:
 1c8:	00002097          	auipc	ra,0x2
 1cc:	e3e08093          	addi	ra,ra,-450 # 2006 <tdat4>
 1d0:	ffc0df03          	lhu	t5,-4(ra)
 1d4:	00010eb7          	lui	t4,0x10
 1d8:	f00e8e93          	addi	t4,t4,-256 # ff00 <_end+0xdcfc>
 1dc:	00700193          	li	gp,7
 1e0:	00002e17          	auipc	t3,0x2
 1e4:	e30e0e13          	addi	t3,t3,-464 # 2010 <begin_signature>
 1e8:	01ee2e23          	sw	t5,28(t3)
 1ec:	27df1a63          	bne	t5,t4,460 <fail>

000001f0 <test_8>:
 1f0:	00002097          	auipc	ra,0x2
 1f4:	e1608093          	addi	ra,ra,-490 # 2006 <tdat4>
 1f8:	ffe0df03          	lhu	t5,-2(ra)
 1fc:	00001eb7          	lui	t4,0x1
 200:	ff0e8e93          	addi	t4,t4,-16 # ff0 <end_testcode+0xb60>
 204:	00800193          	li	gp,8
 208:	00002e17          	auipc	t3,0x2
 20c:	e08e0e13          	addi	t3,t3,-504 # 2010 <begin_signature>
 210:	03ee2023          	sw	t5,32(t3)
 214:	25df1663          	bne	t5,t4,460 <fail>

00000218 <test_9>:
 218:	00002097          	auipc	ra,0x2
 21c:	dee08093          	addi	ra,ra,-530 # 2006 <tdat4>
 220:	0000df03          	lhu	t5,0(ra)
 224:	0000feb7          	lui	t4,0xf
 228:	00fe8e93          	addi	t4,t4,15 # f00f <_end+0xce0b>
 22c:	00900193          	li	gp,9
 230:	00002e17          	auipc	t3,0x2
 234:	de0e0e13          	addi	t3,t3,-544 # 2010 <begin_signature>
 238:	03ee2223          	sw	t5,36(t3)
 23c:	23df1263          	bne	t5,t4,460 <fail>

00000240 <test_10>:
 240:	00002097          	auipc	ra,0x2
 244:	dc008093          	addi	ra,ra,-576 # 2000 <tdat>
 248:	fe008093          	addi	ra,ra,-32
 24c:	0200d283          	lhu	t0,32(ra)
 250:	0ff00e93          	li	t4,255
 254:	00a00193          	li	gp,10
 258:	00002e17          	auipc	t3,0x2
 25c:	db8e0e13          	addi	t3,t3,-584 # 2010 <begin_signature>
 260:	025e2423          	sw	t0,40(t3)
 264:	1fd29e63          	bne	t0,t4,460 <fail>

00000268 <test_11>:
 268:	00002097          	auipc	ra,0x2
 26c:	d9808093          	addi	ra,ra,-616 # 2000 <tdat>
 270:	ffb08093          	addi	ra,ra,-5
 274:	0070d283          	lhu	t0,7(ra)
 278:	00010eb7          	lui	t4,0x10
 27c:	f00e8e93          	addi	t4,t4,-256 # ff00 <_end+0xdcfc>
 280:	00b00193          	li	gp,11
 284:	00002e17          	auipc	t3,0x2
 288:	d8ce0e13          	addi	t3,t3,-628 # 2010 <begin_signature>
 28c:	025e2623          	sw	t0,44(t3)
 290:	1dd29863          	bne	t0,t4,460 <fail>

00000294 <test_12>:
 294:	00c00193          	li	gp,12
 298:	00002e17          	auipc	t3,0x2
 29c:	d78e0e13          	addi	t3,t3,-648 # 2010 <begin_signature>
 2a0:	023e2823          	sw	gp,48(t3)
 2a4:	00000213          	li	tp,0
 2a8:	00002097          	auipc	ra,0x2
 2ac:	d5a08093          	addi	ra,ra,-678 # 2002 <tdat2>
 2b0:	0020df03          	lhu	t5,2(ra)
 2b4:	000f0313          	mv	t1,t5
 2b8:	00001eb7          	lui	t4,0x1
 2bc:	ff0e8e93          	addi	t4,t4,-16 # ff0 <end_testcode+0xb60>
 2c0:	1bd31063          	bne	t1,t4,460 <fail>
 2c4:	00120213          	addi	tp,tp,1 # 1 <_start+0x1>
 2c8:	00200293          	li	t0,2
 2cc:	fc521ee3          	bne	tp,t0,2a8 <test_12+0x14>

000002d0 <test_13>:
 2d0:	00d00193          	li	gp,13
 2d4:	00002e17          	auipc	t3,0x2
 2d8:	d3ce0e13          	addi	t3,t3,-708 # 2010 <begin_signature>
 2dc:	023e2a23          	sw	gp,52(t3)
 2e0:	00000213          	li	tp,0
 2e4:	00002097          	auipc	ra,0x2
 2e8:	d2008093          	addi	ra,ra,-736 # 2004 <tdat3>
 2ec:	0020df03          	lhu	t5,2(ra)
 2f0:	00000013          	nop
 2f4:	000f0313          	mv	t1,t5
 2f8:	0000feb7          	lui	t4,0xf
 2fc:	00fe8e93          	addi	t4,t4,15 # f00f <_end+0xce0b>
 300:	17d31063          	bne	t1,t4,460 <fail>
 304:	00120213          	addi	tp,tp,1 # 1 <_start+0x1>
 308:	00200293          	li	t0,2
 30c:	fc521ce3          	bne	tp,t0,2e4 <test_13+0x14>

00000310 <test_14>:
 310:	00e00193          	li	gp,14
 314:	00002e17          	auipc	t3,0x2
 318:	cfce0e13          	addi	t3,t3,-772 # 2010 <begin_signature>
 31c:	023e2c23          	sw	gp,56(t3)
 320:	00000213          	li	tp,0
 324:	00002097          	auipc	ra,0x2
 328:	cdc08093          	addi	ra,ra,-804 # 2000 <tdat>
 32c:	0020df03          	lhu	t5,2(ra)
 330:	00000013          	nop
 334:	00000013          	nop
 338:	000f0313          	mv	t1,t5
 33c:	00010eb7          	lui	t4,0x10
 340:	f00e8e93          	addi	t4,t4,-256 # ff00 <_end+0xdcfc>
 344:	11d31e63          	bne	t1,t4,460 <fail>
 348:	00120213          	addi	tp,tp,1 # 1 <_start+0x1>
 34c:	00200293          	li	t0,2
 350:	fc521ae3          	bne	tp,t0,324 <test_14+0x14>

00000354 <test_15>:
 354:	00f00193          	li	gp,15
 358:	00002e17          	auipc	t3,0x2
 35c:	cb8e0e13          	addi	t3,t3,-840 # 2010 <begin_signature>
 360:	023e2e23          	sw	gp,60(t3)
 364:	00000213          	li	tp,0
 368:	00002097          	auipc	ra,0x2
 36c:	c9a08093          	addi	ra,ra,-870 # 2002 <tdat2>
 370:	0020df03          	lhu	t5,2(ra)
 374:	00001eb7          	lui	t4,0x1
 378:	ff0e8e93          	addi	t4,t4,-16 # ff0 <end_testcode+0xb60>
 37c:	0fdf1263          	bne	t5,t4,460 <fail>
 380:	00120213          	addi	tp,tp,1 # 1 <_start+0x1>
 384:	00200293          	li	t0,2
 388:	fe5210e3          	bne	tp,t0,368 <test_15+0x14>

0000038c <test_16>:
 38c:	01000193          	li	gp,16
 390:	00002e17          	auipc	t3,0x2
 394:	c80e0e13          	addi	t3,t3,-896 # 2010 <begin_signature>
 398:	043e2023          	sw	gp,64(t3)
 39c:	00000213          	li	tp,0
 3a0:	00002097          	auipc	ra,0x2
 3a4:	c6408093          	addi	ra,ra,-924 # 2004 <tdat3>
 3a8:	00000013          	nop
 3ac:	0020df03          	lhu	t5,2(ra)
 3b0:	0000feb7          	lui	t4,0xf
 3b4:	00fe8e93          	addi	t4,t4,15 # f00f <_end+0xce0b>
 3b8:	0bdf1463          	bne	t5,t4,460 <fail>
 3bc:	00120213          	addi	tp,tp,1 # 1 <_start+0x1>
 3c0:	00200293          	li	t0,2
 3c4:	fc521ee3          	bne	tp,t0,3a0 <test_16+0x14>

000003c8 <test_17>:
 3c8:	01100193          	li	gp,17
 3cc:	00002e17          	auipc	t3,0x2
 3d0:	c44e0e13          	addi	t3,t3,-956 # 2010 <begin_signature>
 3d4:	043e2223          	sw	gp,68(t3)
 3d8:	00000213          	li	tp,0
 3dc:	00002097          	auipc	ra,0x2
 3e0:	c2408093          	addi	ra,ra,-988 # 2000 <tdat>
 3e4:	00000013          	nop
 3e8:	00000013          	nop
 3ec:	0020df03          	lhu	t5,2(ra)
 3f0:	00010eb7          	lui	t4,0x10
 3f4:	f00e8e93          	addi	t4,t4,-256 # ff00 <_end+0xdcfc>
 3f8:	07df1463          	bne	t5,t4,460 <fail>
 3fc:	00120213          	addi	tp,tp,1 # 1 <_start+0x1>
 400:	00200293          	li	t0,2
 404:	fc521ce3          	bne	tp,t0,3dc <test_17+0x14>

00000408 <test_18>:
 408:	00002297          	auipc	t0,0x2
 40c:	bf828293          	addi	t0,t0,-1032 # 2000 <tdat>
 410:	0002d103          	lhu	sp,0(t0)
 414:	00200113          	li	sp,2
 418:	00200e93          	li	t4,2
 41c:	01200193          	li	gp,18
 420:	00002e17          	auipc	t3,0x2
 424:	bf0e0e13          	addi	t3,t3,-1040 # 2010 <begin_signature>
 428:	042e2423          	sw	sp,72(t3)
 42c:	03d11a63          	bne	sp,t4,460 <fail>

00000430 <test_19>:
 430:	00002297          	auipc	t0,0x2
 434:	bd028293          	addi	t0,t0,-1072 # 2000 <tdat>
 438:	0002d103          	lhu	sp,0(t0)
 43c:	00000013          	nop
 440:	00200113          	li	sp,2
 444:	00200e93          	li	t4,2
 448:	01300193          	li	gp,19
 44c:	00002e17          	auipc	t3,0x2
 450:	bc4e0e13          	addi	t3,t3,-1084 # 2010 <begin_signature>
 454:	042e2623          	sw	sp,76(t3)
 458:	01d11463          	bne	sp,t4,460 <fail>
 45c:	00301e63          	bne	zero,gp,478 <pass>

00000460 <fail>:
 460:	0ff0000f          	fence
 464:	00100193          	li	gp,1
 468:	00002e17          	auipc	t3,0x2
 46c:	ba8e0e13          	addi	t3,t3,-1112 # 2010 <begin_signature>
 470:	003e2023          	sw	gp,0(t3)
 474:	00000073          	ecall

00000478 <pass>:
 478:	0ff0000f          	fence
 47c:	00100193          	li	gp,1
 480:	00002e17          	auipc	t3,0x2
 484:	b90e0e13          	addi	t3,t3,-1136 # 2010 <begin_signature>
 488:	003e2023          	sw	gp,0(t3)
 48c:	00000073          	ecall

00000490 <end_testcode>:
 490:	c0001073          	unimp
	...

Disassembly of section .tohost:

00001000 <tohost>:
	...

00001100 <fromhost>:
	...
