
/home/ubuntu/Downloads/NF5_test/riscv-compliance-master/work/rv32ui/sh.elf：     文件格式 elf32-littleriscv


Disassembly of section .text.init:

00000000 <_start>:
   0:	04c0006f          	j	4c <reset_vector>

00000004 <trap_vector>:
   4:	34202f73          	csrr	t5,mcause
   8:	00800f93          	li	t6,8
   c:	03ff0a63          	beq	t5,t6,40 <write_tohost>
  10:	00900f93          	li	t6,9
  14:	03ff0663          	beq	t5,t6,40 <write_tohost>
  18:	00b00f93          	li	t6,11
  1c:	03ff0263          	beq	t5,t6,40 <write_tohost>
  20:	00000f17          	auipc	t5,0x0
  24:	fe0f0f13          	addi	t5,t5,-32 # 0 <_start>
  28:	000f0463          	beqz	t5,30 <trap_vector+0x2c>
  2c:	000f0067          	jr	t5
  30:	34202f73          	csrr	t5,mcause
  34:	000f5463          	bgez	t5,3c <handle_exception>
  38:	0040006f          	j	3c <handle_exception>

0000003c <handle_exception>:
  3c:	5391e193          	ori	gp,gp,1337

00000040 <write_tohost>:
  40:	00001f17          	auipc	t5,0x1
  44:	fc3f2023          	sw	gp,-64(t5) # 1000 <tohost>
  48:	ff9ff06f          	j	40 <write_tohost>

0000004c <reset_vector>:
  4c:	f1402573          	csrr	a0,mhartid
  50:	00051063          	bnez	a0,50 <reset_vector+0x4>
  54:	00000297          	auipc	t0,0x0
  58:	01028293          	addi	t0,t0,16 # 64 <reset_vector+0x18>
  5c:	30529073          	csrw	mtvec,t0
  60:	18005073          	csrwi	satp,0
  64:	00000297          	auipc	t0,0x0
  68:	01c28293          	addi	t0,t0,28 # 80 <reset_vector+0x34>
  6c:	30529073          	csrw	mtvec,t0
  70:	fff00293          	li	t0,-1
  74:	3b029073          	csrw	pmpaddr0,t0
  78:	01f00293          	li	t0,31
  7c:	3a029073          	csrw	pmpcfg0,t0
  80:	00000297          	auipc	t0,0x0
  84:	01828293          	addi	t0,t0,24 # 98 <reset_vector+0x4c>
  88:	30529073          	csrw	mtvec,t0
  8c:	30205073          	csrwi	medeleg,0
  90:	30305073          	csrwi	mideleg,0
  94:	30405073          	csrwi	mie,0
  98:	00000193          	li	gp,0
  9c:	00000297          	auipc	t0,0x0
  a0:	f6828293          	addi	t0,t0,-152 # 4 <trap_vector>
  a4:	30529073          	csrw	mtvec,t0
  a8:	00100513          	li	a0,1
  ac:	01f51513          	slli	a0,a0,0x1f
  b0:	00054e63          	bltz	a0,cc <reset_vector+0x80>
  b4:	0ff0000f          	fence
  b8:	00100193          	li	gp,1
  bc:	00002e17          	auipc	t3,0x2
  c0:	f64e0e13          	addi	t3,t3,-156 # 2020 <begin_signature>
  c4:	003e2023          	sw	gp,0(t3)
  c8:	00000073          	ecall
  cc:	00000297          	auipc	t0,0x0
  d0:	f3428293          	addi	t0,t0,-204 # 0 <_start>
  d4:	00028e63          	beqz	t0,f0 <reset_vector+0xa4>
  d8:	10529073          	csrw	stvec,t0
  dc:	0000b2b7          	lui	t0,0xb
  e0:	10928293          	addi	t0,t0,265 # b109 <_end+0x8f05>
  e4:	30229073          	csrw	medeleg,t0
  e8:	30202373          	csrr	t1,medeleg
  ec:	f46298e3          	bne	t0,t1,3c <handle_exception>
  f0:	30005073          	csrwi	mstatus,0
  f4:	00000297          	auipc	t0,0x0
  f8:	01428293          	addi	t0,t0,20 # 108 <begin_testcode>
  fc:	34129073          	csrw	mepc,t0
 100:	f1402573          	csrr	a0,mhartid
 104:	30200073          	mret

00000108 <begin_testcode>:
 108:	00002097          	auipc	ra,0x2
 10c:	ef808093          	addi	ra,ra,-264 # 2000 <tdat>
 110:	0aa00113          	li	sp,170
 114:	00209023          	sh	sp,0(ra)
 118:	00009f03          	lh	t5,0(ra)
 11c:	0aa00e93          	li	t4,170
 120:	00200193          	li	gp,2
 124:	00002e17          	auipc	t3,0x2
 128:	efce0e13          	addi	t3,t3,-260 # 2020 <begin_signature>
 12c:	01ee2423          	sw	t5,8(t3)
 130:	55df1c63          	bne	t5,t4,688 <fail>

00000134 <test_3>:
 134:	00002097          	auipc	ra,0x2
 138:	ecc08093          	addi	ra,ra,-308 # 2000 <tdat>
 13c:	ffffb137          	lui	sp,0xffffb
 140:	a0010113          	addi	sp,sp,-1536 # ffffaa00 <_end+0xffff87fc>
 144:	00209123          	sh	sp,2(ra)
 148:	00209f03          	lh	t5,2(ra)
 14c:	ffffbeb7          	lui	t4,0xffffb
 150:	a00e8e93          	addi	t4,t4,-1536 # ffffaa00 <_end+0xffff87fc>
 154:	00300193          	li	gp,3
 158:	00002e17          	auipc	t3,0x2
 15c:	ec8e0e13          	addi	t3,t3,-312 # 2020 <begin_signature>
 160:	01ee2623          	sw	t5,12(t3)
 164:	53df1263          	bne	t5,t4,688 <fail>

00000168 <test_4>:
 168:	00002097          	auipc	ra,0x2
 16c:	e9808093          	addi	ra,ra,-360 # 2000 <tdat>
 170:	beef1137          	lui	sp,0xbeef1
 174:	aa010113          	addi	sp,sp,-1376 # beef0aa0 <_end+0xbeeee89c>
 178:	00209223          	sh	sp,4(ra)
 17c:	0040af03          	lw	t5,4(ra)
 180:	beef1eb7          	lui	t4,0xbeef1
 184:	aa0e8e93          	addi	t4,t4,-1376 # beef0aa0 <_end+0xbeeee89c>
 188:	00400193          	li	gp,4
 18c:	00002e17          	auipc	t3,0x2
 190:	e94e0e13          	addi	t3,t3,-364 # 2020 <begin_signature>
 194:	01ee2823          	sw	t5,16(t3)
 198:	4fdf1863          	bne	t5,t4,688 <fail>

0000019c <test_5>:
 19c:	00002097          	auipc	ra,0x2
 1a0:	e6408093          	addi	ra,ra,-412 # 2000 <tdat>
 1a4:	ffffa137          	lui	sp,0xffffa
 1a8:	00a10113          	addi	sp,sp,10 # ffffa00a <_end+0xffff7e06>
 1ac:	00209323          	sh	sp,6(ra)
 1b0:	00609f03          	lh	t5,6(ra)
 1b4:	ffffaeb7          	lui	t4,0xffffa
 1b8:	00ae8e93          	addi	t4,t4,10 # ffffa00a <_end+0xffff7e06>
 1bc:	00500193          	li	gp,5
 1c0:	00002e17          	auipc	t3,0x2
 1c4:	e60e0e13          	addi	t3,t3,-416 # 2020 <begin_signature>
 1c8:	01ee2a23          	sw	t5,20(t3)
 1cc:	4bdf1e63          	bne	t5,t4,688 <fail>

000001d0 <test_6>:
 1d0:	00002097          	auipc	ra,0x2
 1d4:	e3e08093          	addi	ra,ra,-450 # 200e <tdat8>
 1d8:	0aa00113          	li	sp,170
 1dc:	fe209d23          	sh	sp,-6(ra)
 1e0:	ffa09f03          	lh	t5,-6(ra)
 1e4:	0aa00e93          	li	t4,170
 1e8:	00600193          	li	gp,6
 1ec:	00002e17          	auipc	t3,0x2
 1f0:	e34e0e13          	addi	t3,t3,-460 # 2020 <begin_signature>
 1f4:	01ee2c23          	sw	t5,24(t3)
 1f8:	49df1863          	bne	t5,t4,688 <fail>

000001fc <test_7>:
 1fc:	00002097          	auipc	ra,0x2
 200:	e1208093          	addi	ra,ra,-494 # 200e <tdat8>
 204:	ffffb137          	lui	sp,0xffffb
 208:	a0010113          	addi	sp,sp,-1536 # ffffaa00 <_end+0xffff87fc>
 20c:	fe209e23          	sh	sp,-4(ra)
 210:	ffc09f03          	lh	t5,-4(ra)
 214:	ffffbeb7          	lui	t4,0xffffb
 218:	a00e8e93          	addi	t4,t4,-1536 # ffffaa00 <_end+0xffff87fc>
 21c:	00700193          	li	gp,7
 220:	00002e17          	auipc	t3,0x2
 224:	e00e0e13          	addi	t3,t3,-512 # 2020 <begin_signature>
 228:	01ee2e23          	sw	t5,28(t3)
 22c:	45df1e63          	bne	t5,t4,688 <fail>

00000230 <test_8>:
 230:	00002097          	auipc	ra,0x2
 234:	dde08093          	addi	ra,ra,-546 # 200e <tdat8>
 238:	00001137          	lui	sp,0x1
 23c:	aa010113          	addi	sp,sp,-1376 # aa0 <end_testcode+0x3e8>
 240:	fe209f23          	sh	sp,-2(ra)
 244:	ffe09f03          	lh	t5,-2(ra)
 248:	00001eb7          	lui	t4,0x1
 24c:	aa0e8e93          	addi	t4,t4,-1376 # aa0 <end_testcode+0x3e8>
 250:	00800193          	li	gp,8
 254:	00002e17          	auipc	t3,0x2
 258:	dcce0e13          	addi	t3,t3,-564 # 2020 <begin_signature>
 25c:	03ee2023          	sw	t5,32(t3)
 260:	43df1463          	bne	t5,t4,688 <fail>

00000264 <test_9>:
 264:	00002097          	auipc	ra,0x2
 268:	daa08093          	addi	ra,ra,-598 # 200e <tdat8>
 26c:	ffffa137          	lui	sp,0xffffa
 270:	00a10113          	addi	sp,sp,10 # ffffa00a <_end+0xffff7e06>
 274:	00209023          	sh	sp,0(ra)
 278:	00009f03          	lh	t5,0(ra)
 27c:	ffffaeb7          	lui	t4,0xffffa
 280:	00ae8e93          	addi	t4,t4,10 # ffffa00a <_end+0xffff7e06>
 284:	00900193          	li	gp,9
 288:	00002e17          	auipc	t3,0x2
 28c:	d98e0e13          	addi	t3,t3,-616 # 2020 <begin_signature>
 290:	03ee2223          	sw	t5,36(t3)
 294:	3fdf1a63          	bne	t5,t4,688 <fail>

00000298 <test_10>:
 298:	00002097          	auipc	ra,0x2
 29c:	d7808093          	addi	ra,ra,-648 # 2010 <tdat9>
 2a0:	12345137          	lui	sp,0x12345
 2a4:	67810113          	addi	sp,sp,1656 # 12345678 <_end+0x12343474>
 2a8:	fe008213          	addi	tp,ra,-32
 2ac:	02221023          	sh	sp,32(tp) # 20 <trap_vector+0x1c>
 2b0:	00009283          	lh	t0,0(ra)
 2b4:	00005eb7          	lui	t4,0x5
 2b8:	678e8e93          	addi	t4,t4,1656 # 5678 <_end+0x3474>
 2bc:	00a00193          	li	gp,10
 2c0:	00002e17          	auipc	t3,0x2
 2c4:	d60e0e13          	addi	t3,t3,-672 # 2020 <begin_signature>
 2c8:	025e2423          	sw	t0,40(t3)
 2cc:	3bd29e63          	bne	t0,t4,688 <fail>

000002d0 <test_11>:
 2d0:	00002097          	auipc	ra,0x2
 2d4:	d4008093          	addi	ra,ra,-704 # 2010 <tdat9>
 2d8:	00003137          	lui	sp,0x3
 2dc:	09810113          	addi	sp,sp,152 # 3098 <_end+0xe94>
 2e0:	ffb08093          	addi	ra,ra,-5
 2e4:	002093a3          	sh	sp,7(ra)
 2e8:	00002217          	auipc	tp,0x2
 2ec:	d2a20213          	addi	tp,tp,-726 # 2012 <tdat10>
 2f0:	00021283          	lh	t0,0(tp) # 0 <_start>
 2f4:	00003eb7          	lui	t4,0x3
 2f8:	098e8e93          	addi	t4,t4,152 # 3098 <_end+0xe94>
 2fc:	00b00193          	li	gp,11
 300:	00002e17          	auipc	t3,0x2
 304:	d20e0e13          	addi	t3,t3,-736 # 2020 <begin_signature>
 308:	025e2623          	sw	t0,44(t3)
 30c:	37d29e63          	bne	t0,t4,688 <fail>

00000310 <test_12>:
 310:	00c00193          	li	gp,12
 314:	00002e17          	auipc	t3,0x2
 318:	d0ce0e13          	addi	t3,t3,-756 # 2020 <begin_signature>
 31c:	023e2823          	sw	gp,48(t3)
 320:	00000213          	li	tp,0
 324:	ffffd0b7          	lui	ra,0xffffd
 328:	cdd08093          	addi	ra,ra,-803 # ffffccdd <_end+0xffffaad9>
 32c:	00002117          	auipc	sp,0x2
 330:	cd410113          	addi	sp,sp,-812 # 2000 <tdat>
 334:	00111023          	sh	ra,0(sp)
 338:	00011f03          	lh	t5,0(sp)
 33c:	ffffdeb7          	lui	t4,0xffffd
 340:	cdde8e93          	addi	t4,t4,-803 # ffffccdd <_end+0xffffaad9>
 344:	35df1263          	bne	t5,t4,688 <fail>
 348:	00120213          	addi	tp,tp,1 # 1 <_start+0x1>
 34c:	00200293          	li	t0,2
 350:	fc521ae3          	bne	tp,t0,324 <test_12+0x14>

00000354 <test_13>:
 354:	00d00193          	li	gp,13
 358:	00002e17          	auipc	t3,0x2
 35c:	cc8e0e13          	addi	t3,t3,-824 # 2020 <begin_signature>
 360:	023e2a23          	sw	gp,52(t3)
 364:	00000213          	li	tp,0
 368:	ffffc0b7          	lui	ra,0xffffc
 36c:	ccd08093          	addi	ra,ra,-819 # ffffbccd <_end+0xffff9ac9>
 370:	00002117          	auipc	sp,0x2
 374:	c9010113          	addi	sp,sp,-880 # 2000 <tdat>
 378:	00000013          	nop
 37c:	00111123          	sh	ra,2(sp)
 380:	00211f03          	lh	t5,2(sp)
 384:	ffffceb7          	lui	t4,0xffffc
 388:	ccde8e93          	addi	t4,t4,-819 # ffffbccd <_end+0xffff9ac9>
 38c:	2fdf1e63          	bne	t5,t4,688 <fail>
 390:	00120213          	addi	tp,tp,1 # 1 <_start+0x1>
 394:	00200293          	li	t0,2
 398:	fc5218e3          	bne	tp,t0,368 <test_13+0x14>

0000039c <test_14>:
 39c:	00e00193          	li	gp,14
 3a0:	00002e17          	auipc	t3,0x2
 3a4:	c80e0e13          	addi	t3,t3,-896 # 2020 <begin_signature>
 3a8:	023e2c23          	sw	gp,56(t3)
 3ac:	00000213          	li	tp,0
 3b0:	ffffc0b7          	lui	ra,0xffffc
 3b4:	bcc08093          	addi	ra,ra,-1076 # ffffbbcc <_end+0xffff99c8>
 3b8:	00002117          	auipc	sp,0x2
 3bc:	c4810113          	addi	sp,sp,-952 # 2000 <tdat>
 3c0:	00000013          	nop
 3c4:	00000013          	nop
 3c8:	00111223          	sh	ra,4(sp)
 3cc:	00411f03          	lh	t5,4(sp)
 3d0:	ffffceb7          	lui	t4,0xffffc
 3d4:	bcce8e93          	addi	t4,t4,-1076 # ffffbbcc <_end+0xffff99c8>
 3d8:	2bdf1863          	bne	t5,t4,688 <fail>
 3dc:	00120213          	addi	tp,tp,1 # 1 <_start+0x1>
 3e0:	00200293          	li	t0,2
 3e4:	fc5216e3          	bne	tp,t0,3b0 <test_14+0x14>

000003e8 <test_15>:
 3e8:	00f00193          	li	gp,15
 3ec:	00002e17          	auipc	t3,0x2
 3f0:	c34e0e13          	addi	t3,t3,-972 # 2020 <begin_signature>
 3f4:	023e2e23          	sw	gp,60(t3)
 3f8:	00000213          	li	tp,0
 3fc:	ffffb0b7          	lui	ra,0xffffb
 400:	bbc08093          	addi	ra,ra,-1092 # ffffabbc <_end+0xffff89b8>
 404:	00000013          	nop
 408:	00002117          	auipc	sp,0x2
 40c:	bf810113          	addi	sp,sp,-1032 # 2000 <tdat>
 410:	00111323          	sh	ra,6(sp)
 414:	00611f03          	lh	t5,6(sp)
 418:	ffffbeb7          	lui	t4,0xffffb
 41c:	bbce8e93          	addi	t4,t4,-1092 # ffffabbc <_end+0xffff89b8>
 420:	27df1463          	bne	t5,t4,688 <fail>
 424:	00120213          	addi	tp,tp,1 # 1 <_start+0x1>
 428:	00200293          	li	t0,2
 42c:	fc5218e3          	bne	tp,t0,3fc <test_15+0x14>

00000430 <test_16>:
 430:	01000193          	li	gp,16
 434:	00002e17          	auipc	t3,0x2
 438:	bece0e13          	addi	t3,t3,-1044 # 2020 <begin_signature>
 43c:	043e2023          	sw	gp,64(t3)
 440:	00000213          	li	tp,0
 444:	ffffb0b7          	lui	ra,0xffffb
 448:	abb08093          	addi	ra,ra,-1349 # ffffaabb <_end+0xffff88b7>
 44c:	00000013          	nop
 450:	00002117          	auipc	sp,0x2
 454:	bb010113          	addi	sp,sp,-1104 # 2000 <tdat>
 458:	00000013          	nop
 45c:	00111423          	sh	ra,8(sp)
 460:	00811f03          	lh	t5,8(sp)
 464:	ffffbeb7          	lui	t4,0xffffb
 468:	abbe8e93          	addi	t4,t4,-1349 # ffffaabb <_end+0xffff88b7>
 46c:	21df1e63          	bne	t5,t4,688 <fail>
 470:	00120213          	addi	tp,tp,1 # 1 <_start+0x1>
 474:	00200293          	li	t0,2
 478:	fc5216e3          	bne	tp,t0,444 <test_16+0x14>

0000047c <test_17>:
 47c:	01100193          	li	gp,17
 480:	00002e17          	auipc	t3,0x2
 484:	ba0e0e13          	addi	t3,t3,-1120 # 2020 <begin_signature>
 488:	043e2223          	sw	gp,68(t3)
 48c:	00000213          	li	tp,0
 490:	ffffe0b7          	lui	ra,0xffffe
 494:	aab08093          	addi	ra,ra,-1365 # ffffdaab <_end+0xffffb8a7>
 498:	00000013          	nop
 49c:	00000013          	nop
 4a0:	00002117          	auipc	sp,0x2
 4a4:	b6010113          	addi	sp,sp,-1184 # 2000 <tdat>
 4a8:	00111523          	sh	ra,10(sp)
 4ac:	00a11f03          	lh	t5,10(sp)
 4b0:	ffffeeb7          	lui	t4,0xffffe
 4b4:	aabe8e93          	addi	t4,t4,-1365 # ffffdaab <_end+0xffffb8a7>
 4b8:	1ddf1863          	bne	t5,t4,688 <fail>
 4bc:	00120213          	addi	tp,tp,1 # 1 <_start+0x1>
 4c0:	00200293          	li	t0,2
 4c4:	fc5216e3          	bne	tp,t0,490 <test_17+0x14>

000004c8 <test_18>:
 4c8:	01200193          	li	gp,18
 4cc:	00002e17          	auipc	t3,0x2
 4d0:	b54e0e13          	addi	t3,t3,-1196 # 2020 <begin_signature>
 4d4:	043e2423          	sw	gp,72(t3)
 4d8:	00000213          	li	tp,0
 4dc:	00002117          	auipc	sp,0x2
 4e0:	b2410113          	addi	sp,sp,-1244 # 2000 <tdat>
 4e4:	000020b7          	lui	ra,0x2
 4e8:	23308093          	addi	ra,ra,563 # 2233 <_end+0x2f>
 4ec:	00111023          	sh	ra,0(sp)
 4f0:	00011f03          	lh	t5,0(sp)
 4f4:	00002eb7          	lui	t4,0x2
 4f8:	233e8e93          	addi	t4,t4,563 # 2233 <_end+0x2f>
 4fc:	19df1663          	bne	t5,t4,688 <fail>
 500:	00120213          	addi	tp,tp,1 # 1 <_start+0x1>
 504:	00200293          	li	t0,2
 508:	fc521ae3          	bne	tp,t0,4dc <test_18+0x14>

0000050c <test_19>:
 50c:	01300193          	li	gp,19
 510:	00002e17          	auipc	t3,0x2
 514:	b10e0e13          	addi	t3,t3,-1264 # 2020 <begin_signature>
 518:	043e2623          	sw	gp,76(t3)
 51c:	00000213          	li	tp,0
 520:	00002117          	auipc	sp,0x2
 524:	ae010113          	addi	sp,sp,-1312 # 2000 <tdat>
 528:	000010b7          	lui	ra,0x1
 52c:	22308093          	addi	ra,ra,547 # 1223 <fromhost+0x123>
 530:	00000013          	nop
 534:	00111123          	sh	ra,2(sp)
 538:	00211f03          	lh	t5,2(sp)
 53c:	00001eb7          	lui	t4,0x1
 540:	223e8e93          	addi	t4,t4,547 # 1223 <fromhost+0x123>
 544:	15df1263          	bne	t5,t4,688 <fail>
 548:	00120213          	addi	tp,tp,1 # 1 <_start+0x1>
 54c:	00200293          	li	t0,2
 550:	fc5218e3          	bne	tp,t0,520 <test_19+0x14>

00000554 <test_20>:
 554:	01400193          	li	gp,20
 558:	00002e17          	auipc	t3,0x2
 55c:	ac8e0e13          	addi	t3,t3,-1336 # 2020 <begin_signature>
 560:	043e2823          	sw	gp,80(t3)
 564:	00000213          	li	tp,0
 568:	00002117          	auipc	sp,0x2
 56c:	a9810113          	addi	sp,sp,-1384 # 2000 <tdat>
 570:	000010b7          	lui	ra,0x1
 574:	12208093          	addi	ra,ra,290 # 1122 <fromhost+0x22>
 578:	00000013          	nop
 57c:	00000013          	nop
 580:	00111223          	sh	ra,4(sp)
 584:	00411f03          	lh	t5,4(sp)
 588:	00001eb7          	lui	t4,0x1
 58c:	122e8e93          	addi	t4,t4,290 # 1122 <fromhost+0x22>
 590:	0fdf1c63          	bne	t5,t4,688 <fail>
 594:	00120213          	addi	tp,tp,1 # 1 <_start+0x1>
 598:	00200293          	li	t0,2
 59c:	fc5216e3          	bne	tp,t0,568 <test_20+0x14>

000005a0 <test_21>:
 5a0:	01500193          	li	gp,21
 5a4:	00002e17          	auipc	t3,0x2
 5a8:	a7ce0e13          	addi	t3,t3,-1412 # 2020 <begin_signature>
 5ac:	043e2a23          	sw	gp,84(t3)
 5b0:	00000213          	li	tp,0
 5b4:	00002117          	auipc	sp,0x2
 5b8:	a4c10113          	addi	sp,sp,-1460 # 2000 <tdat>
 5bc:	00000013          	nop
 5c0:	11200093          	li	ra,274
 5c4:	00111323          	sh	ra,6(sp)
 5c8:	00611f03          	lh	t5,6(sp)
 5cc:	11200e93          	li	t4,274
 5d0:	0bdf1c63          	bne	t5,t4,688 <fail>
 5d4:	00120213          	addi	tp,tp,1 # 1 <_start+0x1>
 5d8:	00200293          	li	t0,2
 5dc:	fc521ce3          	bne	tp,t0,5b4 <test_21+0x14>

000005e0 <test_22>:
 5e0:	01600193          	li	gp,22
 5e4:	00002e17          	auipc	t3,0x2
 5e8:	a3ce0e13          	addi	t3,t3,-1476 # 2020 <begin_signature>
 5ec:	043e2c23          	sw	gp,88(t3)
 5f0:	00000213          	li	tp,0
 5f4:	00002117          	auipc	sp,0x2
 5f8:	a0c10113          	addi	sp,sp,-1524 # 2000 <tdat>
 5fc:	00000013          	nop
 600:	01100093          	li	ra,17
 604:	00000013          	nop
 608:	00111423          	sh	ra,8(sp)
 60c:	00811f03          	lh	t5,8(sp)
 610:	01100e93          	li	t4,17
 614:	07df1a63          	bne	t5,t4,688 <fail>
 618:	00120213          	addi	tp,tp,1 # 1 <_start+0x1>
 61c:	00200293          	li	t0,2
 620:	fc521ae3          	bne	tp,t0,5f4 <test_22+0x14>

00000624 <test_23>:
 624:	01700193          	li	gp,23
 628:	00002e17          	auipc	t3,0x2
 62c:	9f8e0e13          	addi	t3,t3,-1544 # 2020 <begin_signature>
 630:	043e2e23          	sw	gp,92(t3)
 634:	00000213          	li	tp,0
 638:	00002117          	auipc	sp,0x2
 63c:	9c810113          	addi	sp,sp,-1592 # 2000 <tdat>
 640:	00000013          	nop
 644:	00000013          	nop
 648:	000030b7          	lui	ra,0x3
 64c:	00108093          	addi	ra,ra,1 # 3001 <_end+0xdfd>
 650:	00111523          	sh	ra,10(sp)
 654:	00a11f03          	lh	t5,10(sp)
 658:	00003eb7          	lui	t4,0x3
 65c:	001e8e93          	addi	t4,t4,1 # 3001 <_end+0xdfd>
 660:	03df1463          	bne	t5,t4,688 <fail>
 664:	00120213          	addi	tp,tp,1 # 1 <_start+0x1>
 668:	00200293          	li	t0,2
 66c:	fc5216e3          	bne	tp,t0,638 <test_23+0x14>
 670:	0000c537          	lui	a0,0xc
 674:	eef50513          	addi	a0,a0,-273 # beef <_end+0x9ceb>
 678:	00002597          	auipc	a1,0x2
 67c:	98858593          	addi	a1,a1,-1656 # 2000 <tdat>
 680:	00a59323          	sh	a0,6(a1)
 684:	00301e63          	bne	zero,gp,6a0 <pass>

00000688 <fail>:
 688:	0ff0000f          	fence
 68c:	00100193          	li	gp,1
 690:	00002e17          	auipc	t3,0x2
 694:	990e0e13          	addi	t3,t3,-1648 # 2020 <begin_signature>
 698:	003e2023          	sw	gp,0(t3)
 69c:	00000073          	ecall

000006a0 <pass>:
 6a0:	0ff0000f          	fence
 6a4:	00100193          	li	gp,1
 6a8:	00002e17          	auipc	t3,0x2
 6ac:	978e0e13          	addi	t3,t3,-1672 # 2020 <begin_signature>
 6b0:	003e2023          	sw	gp,0(t3)
 6b4:	00000073          	ecall

000006b8 <end_testcode>:
 6b8:	c0001073          	unimp
	...

Disassembly of section .tohost:

00001000 <tohost>:
	...

00001100 <fromhost>:
	...
