
/home/ubuntu/Desktop/riscv-compliance-master/work/rv32ui/sra.elf：     文件格式 elf32-littleriscv


Disassembly of section .text.init:

00000000 <_start>:
   0:	04c0006f          	j	4c <reset_vector>

00000004 <trap_vector>:
   4:	34202f73          	csrr	t5,mcause
   8:	00800f93          	li	t6,8
   c:	03ff0a63          	beq	t5,t6,40 <write_tohost>
  10:	00900f93          	li	t6,9
  14:	03ff0663          	beq	t5,t6,40 <write_tohost>
  18:	00b00f93          	li	t6,11
  1c:	03ff0263          	beq	t5,t6,40 <write_tohost>
  20:	00000f17          	auipc	t5,0x0
  24:	fe0f0f13          	addi	t5,t5,-32 # 0 <_start>
  28:	000f0463          	beqz	t5,30 <trap_vector+0x2c>
  2c:	000f0067          	jr	t5
  30:	34202f73          	csrr	t5,mcause
  34:	000f5463          	bgez	t5,3c <handle_exception>
  38:	0040006f          	j	3c <handle_exception>

0000003c <handle_exception>:
  3c:	5391e193          	ori	gp,gp,1337

00000040 <write_tohost>:
  40:	00001f17          	auipc	t5,0x1
  44:	fc3f2023          	sw	gp,-64(t5) # 1000 <tohost>
  48:	ff9ff06f          	j	40 <write_tohost>

0000004c <reset_vector>:
  4c:	f1402573          	csrr	a0,mhartid
  50:	00051063          	bnez	a0,50 <reset_vector+0x4>
  54:	00000297          	auipc	t0,0x0
  58:	01028293          	addi	t0,t0,16 # 64 <reset_vector+0x18>
  5c:	30529073          	csrw	mtvec,t0
  60:	18005073          	csrwi	satp,0
  64:	00000297          	auipc	t0,0x0
  68:	01c28293          	addi	t0,t0,28 # 80 <reset_vector+0x34>
  6c:	30529073          	csrw	mtvec,t0
  70:	fff00293          	li	t0,-1
  74:	3b029073          	csrw	pmpaddr0,t0
  78:	01f00293          	li	t0,31
  7c:	3a029073          	csrw	pmpcfg0,t0
  80:	00000297          	auipc	t0,0x0
  84:	01828293          	addi	t0,t0,24 # 98 <reset_vector+0x4c>
  88:	30529073          	csrw	mtvec,t0
  8c:	30205073          	csrwi	medeleg,0
  90:	30305073          	csrwi	mideleg,0
  94:	30405073          	csrwi	mie,0
  98:	00000193          	li	gp,0
  9c:	00000297          	auipc	t0,0x0
  a0:	f6828293          	addi	t0,t0,-152 # 4 <trap_vector>
  a4:	30529073          	csrw	mtvec,t0
  a8:	00100513          	li	a0,1
  ac:	01f51513          	slli	a0,a0,0x1f
  b0:	00054e63          	bltz	a0,cc <reset_vector+0x80>
  b4:	0ff0000f          	fence
  b8:	00100193          	li	gp,1
  bc:	00002e17          	auipc	t3,0x2
  c0:	f44e0e13          	addi	t3,t3,-188 # 2000 <begin_signature>
  c4:	003e2023          	sw	gp,0(t3)
  c8:	00000073          	ecall
  cc:	00000297          	auipc	t0,0x0
  d0:	f3428293          	addi	t0,t0,-204 # 0 <_start>
  d4:	00028e63          	beqz	t0,f0 <reset_vector+0xa4>
  d8:	10529073          	csrw	stvec,t0
  dc:	0000b2b7          	lui	t0,0xb
  e0:	10928293          	addi	t0,t0,265 # b109 <_end+0x8f05>
  e4:	30229073          	csrw	medeleg,t0
  e8:	30202373          	csrr	t1,medeleg
  ec:	f46298e3          	bne	t0,t1,3c <handle_exception>
  f0:	30005073          	csrwi	mstatus,0
  f4:	00000297          	auipc	t0,0x0
  f8:	01428293          	addi	t0,t0,20 # 108 <begin_testcode>
  fc:	34129073          	csrw	mepc,t0
 100:	f1402573          	csrr	a0,mhartid
 104:	30200073          	mret

00000108 <begin_testcode>:
 108:	800000b7          	lui	ra,0x80000
 10c:	00000113          	li	sp,0
 110:	4020df33          	sra	t5,ra,sp
 114:	80000eb7          	lui	t4,0x80000
 118:	00200193          	li	gp,2
 11c:	00002e17          	auipc	t3,0x2
 120:	ee4e0e13          	addi	t3,t3,-284 # 2000 <begin_signature>
 124:	01ee2423          	sw	t5,8(t3)
 128:	77df1a63          	bne	t5,t4,89c <fail>

0000012c <test_3>:
 12c:	800000b7          	lui	ra,0x80000
 130:	00100113          	li	sp,1
 134:	4020df33          	sra	t5,ra,sp
 138:	c0000eb7          	lui	t4,0xc0000
 13c:	00300193          	li	gp,3
 140:	00002e17          	auipc	t3,0x2
 144:	ec0e0e13          	addi	t3,t3,-320 # 2000 <begin_signature>
 148:	01ee2623          	sw	t5,12(t3)
 14c:	75df1863          	bne	t5,t4,89c <fail>

00000150 <test_4>:
 150:	800000b7          	lui	ra,0x80000
 154:	00700113          	li	sp,7
 158:	4020df33          	sra	t5,ra,sp
 15c:	ff000eb7          	lui	t4,0xff000
 160:	00400193          	li	gp,4
 164:	00002e17          	auipc	t3,0x2
 168:	e9ce0e13          	addi	t3,t3,-356 # 2000 <begin_signature>
 16c:	01ee2823          	sw	t5,16(t3)
 170:	73df1663          	bne	t5,t4,89c <fail>

00000174 <test_5>:
 174:	800000b7          	lui	ra,0x80000
 178:	00e00113          	li	sp,14
 17c:	4020df33          	sra	t5,ra,sp
 180:	fffe0eb7          	lui	t4,0xfffe0
 184:	00500193          	li	gp,5
 188:	00002e17          	auipc	t3,0x2
 18c:	e78e0e13          	addi	t3,t3,-392 # 2000 <begin_signature>
 190:	01ee2a23          	sw	t5,20(t3)
 194:	71df1463          	bne	t5,t4,89c <fail>

00000198 <test_6>:
 198:	800000b7          	lui	ra,0x80000
 19c:	00108093          	addi	ra,ra,1 # 80000001 <_end+0x7fffddfd>
 1a0:	01f00113          	li	sp,31
 1a4:	4020df33          	sra	t5,ra,sp
 1a8:	fff00e93          	li	t4,-1
 1ac:	00600193          	li	gp,6
 1b0:	00002e17          	auipc	t3,0x2
 1b4:	e50e0e13          	addi	t3,t3,-432 # 2000 <begin_signature>
 1b8:	01ee2c23          	sw	t5,24(t3)
 1bc:	6fdf1063          	bne	t5,t4,89c <fail>

000001c0 <test_7>:
 1c0:	800000b7          	lui	ra,0x80000
 1c4:	fff08093          	addi	ra,ra,-1 # 7fffffff <_end+0x7fffddfb>
 1c8:	00000113          	li	sp,0
 1cc:	4020df33          	sra	t5,ra,sp
 1d0:	80000eb7          	lui	t4,0x80000
 1d4:	fffe8e93          	addi	t4,t4,-1 # 7fffffff <_end+0x7fffddfb>
 1d8:	00700193          	li	gp,7
 1dc:	00002e17          	auipc	t3,0x2
 1e0:	e24e0e13          	addi	t3,t3,-476 # 2000 <begin_signature>
 1e4:	01ee2e23          	sw	t5,28(t3)
 1e8:	6bdf1a63          	bne	t5,t4,89c <fail>

000001ec <test_8>:
 1ec:	800000b7          	lui	ra,0x80000
 1f0:	fff08093          	addi	ra,ra,-1 # 7fffffff <_end+0x7fffddfb>
 1f4:	00100113          	li	sp,1
 1f8:	4020df33          	sra	t5,ra,sp
 1fc:	40000eb7          	lui	t4,0x40000
 200:	fffe8e93          	addi	t4,t4,-1 # 3fffffff <_end+0x3fffddfb>
 204:	00800193          	li	gp,8
 208:	00002e17          	auipc	t3,0x2
 20c:	df8e0e13          	addi	t3,t3,-520 # 2000 <begin_signature>
 210:	03ee2023          	sw	t5,32(t3)
 214:	69df1463          	bne	t5,t4,89c <fail>

00000218 <test_9>:
 218:	800000b7          	lui	ra,0x80000
 21c:	fff08093          	addi	ra,ra,-1 # 7fffffff <_end+0x7fffddfb>
 220:	00700113          	li	sp,7
 224:	4020df33          	sra	t5,ra,sp
 228:	01000eb7          	lui	t4,0x1000
 22c:	fffe8e93          	addi	t4,t4,-1 # ffffff <_end+0xffddfb>
 230:	00900193          	li	gp,9
 234:	00002e17          	auipc	t3,0x2
 238:	dcce0e13          	addi	t3,t3,-564 # 2000 <begin_signature>
 23c:	03ee2223          	sw	t5,36(t3)
 240:	65df1e63          	bne	t5,t4,89c <fail>

00000244 <test_10>:
 244:	800000b7          	lui	ra,0x80000
 248:	fff08093          	addi	ra,ra,-1 # 7fffffff <_end+0x7fffddfb>
 24c:	00e00113          	li	sp,14
 250:	4020df33          	sra	t5,ra,sp
 254:	00020eb7          	lui	t4,0x20
 258:	fffe8e93          	addi	t4,t4,-1 # 1ffff <_end+0x1ddfb>
 25c:	00a00193          	li	gp,10
 260:	00002e17          	auipc	t3,0x2
 264:	da0e0e13          	addi	t3,t3,-608 # 2000 <begin_signature>
 268:	03ee2423          	sw	t5,40(t3)
 26c:	63df1863          	bne	t5,t4,89c <fail>

00000270 <test_11>:
 270:	800000b7          	lui	ra,0x80000
 274:	fff08093          	addi	ra,ra,-1 # 7fffffff <_end+0x7fffddfb>
 278:	01f00113          	li	sp,31
 27c:	4020df33          	sra	t5,ra,sp
 280:	00000e93          	li	t4,0
 284:	00b00193          	li	gp,11
 288:	00002e17          	auipc	t3,0x2
 28c:	d78e0e13          	addi	t3,t3,-648 # 2000 <begin_signature>
 290:	03ee2623          	sw	t5,44(t3)
 294:	61df1463          	bne	t5,t4,89c <fail>

00000298 <test_12>:
 298:	818180b7          	lui	ra,0x81818
 29c:	18108093          	addi	ra,ra,385 # 81818181 <_end+0x81815f7d>
 2a0:	00000113          	li	sp,0
 2a4:	4020df33          	sra	t5,ra,sp
 2a8:	81818eb7          	lui	t4,0x81818
 2ac:	181e8e93          	addi	t4,t4,385 # 81818181 <_end+0x81815f7d>
 2b0:	00c00193          	li	gp,12
 2b4:	00002e17          	auipc	t3,0x2
 2b8:	d4ce0e13          	addi	t3,t3,-692 # 2000 <begin_signature>
 2bc:	03ee2823          	sw	t5,48(t3)
 2c0:	5ddf1e63          	bne	t5,t4,89c <fail>

000002c4 <test_13>:
 2c4:	818180b7          	lui	ra,0x81818
 2c8:	18108093          	addi	ra,ra,385 # 81818181 <_end+0x81815f7d>
 2cc:	00100113          	li	sp,1
 2d0:	4020df33          	sra	t5,ra,sp
 2d4:	c0c0ceb7          	lui	t4,0xc0c0c
 2d8:	0c0e8e93          	addi	t4,t4,192 # c0c0c0c0 <_end+0xc0c09ebc>
 2dc:	00d00193          	li	gp,13
 2e0:	00002e17          	auipc	t3,0x2
 2e4:	d20e0e13          	addi	t3,t3,-736 # 2000 <begin_signature>
 2e8:	03ee2a23          	sw	t5,52(t3)
 2ec:	5bdf1863          	bne	t5,t4,89c <fail>

000002f0 <test_14>:
 2f0:	818180b7          	lui	ra,0x81818
 2f4:	18108093          	addi	ra,ra,385 # 81818181 <_end+0x81815f7d>
 2f8:	00700113          	li	sp,7
 2fc:	4020df33          	sra	t5,ra,sp
 300:	ff030eb7          	lui	t4,0xff030
 304:	303e8e93          	addi	t4,t4,771 # ff030303 <_end+0xff02e0ff>
 308:	00e00193          	li	gp,14
 30c:	00002e17          	auipc	t3,0x2
 310:	cf4e0e13          	addi	t3,t3,-780 # 2000 <begin_signature>
 314:	03ee2c23          	sw	t5,56(t3)
 318:	59df1263          	bne	t5,t4,89c <fail>

0000031c <test_15>:
 31c:	818180b7          	lui	ra,0x81818
 320:	18108093          	addi	ra,ra,385 # 81818181 <_end+0x81815f7d>
 324:	00e00113          	li	sp,14
 328:	4020df33          	sra	t5,ra,sp
 32c:	fffe0eb7          	lui	t4,0xfffe0
 330:	606e8e93          	addi	t4,t4,1542 # fffe0606 <_end+0xfffde402>
 334:	00f00193          	li	gp,15
 338:	00002e17          	auipc	t3,0x2
 33c:	cc8e0e13          	addi	t3,t3,-824 # 2000 <begin_signature>
 340:	03ee2e23          	sw	t5,60(t3)
 344:	55df1c63          	bne	t5,t4,89c <fail>

00000348 <test_16>:
 348:	818180b7          	lui	ra,0x81818
 34c:	18108093          	addi	ra,ra,385 # 81818181 <_end+0x81815f7d>
 350:	01f00113          	li	sp,31
 354:	4020df33          	sra	t5,ra,sp
 358:	fff00e93          	li	t4,-1
 35c:	01000193          	li	gp,16
 360:	00002e17          	auipc	t3,0x2
 364:	ca0e0e13          	addi	t3,t3,-864 # 2000 <begin_signature>
 368:	05ee2023          	sw	t5,64(t3)
 36c:	53df1863          	bne	t5,t4,89c <fail>

00000370 <test_17>:
 370:	818180b7          	lui	ra,0x81818
 374:	18108093          	addi	ra,ra,385 # 81818181 <_end+0x81815f7d>
 378:	fc000113          	li	sp,-64
 37c:	4020df33          	sra	t5,ra,sp
 380:	81818eb7          	lui	t4,0x81818
 384:	181e8e93          	addi	t4,t4,385 # 81818181 <_end+0x81815f7d>
 388:	01100193          	li	gp,17
 38c:	00002e17          	auipc	t3,0x2
 390:	c74e0e13          	addi	t3,t3,-908 # 2000 <begin_signature>
 394:	05ee2223          	sw	t5,68(t3)
 398:	51df1263          	bne	t5,t4,89c <fail>

0000039c <test_18>:
 39c:	818180b7          	lui	ra,0x81818
 3a0:	18108093          	addi	ra,ra,385 # 81818181 <_end+0x81815f7d>
 3a4:	fc100113          	li	sp,-63
 3a8:	4020df33          	sra	t5,ra,sp
 3ac:	c0c0ceb7          	lui	t4,0xc0c0c
 3b0:	0c0e8e93          	addi	t4,t4,192 # c0c0c0c0 <_end+0xc0c09ebc>
 3b4:	01200193          	li	gp,18
 3b8:	00002e17          	auipc	t3,0x2
 3bc:	c48e0e13          	addi	t3,t3,-952 # 2000 <begin_signature>
 3c0:	05ee2423          	sw	t5,72(t3)
 3c4:	4ddf1c63          	bne	t5,t4,89c <fail>

000003c8 <test_19>:
 3c8:	818180b7          	lui	ra,0x81818
 3cc:	18108093          	addi	ra,ra,385 # 81818181 <_end+0x81815f7d>
 3d0:	fc700113          	li	sp,-57
 3d4:	4020df33          	sra	t5,ra,sp
 3d8:	ff030eb7          	lui	t4,0xff030
 3dc:	303e8e93          	addi	t4,t4,771 # ff030303 <_end+0xff02e0ff>
 3e0:	01300193          	li	gp,19
 3e4:	00002e17          	auipc	t3,0x2
 3e8:	c1ce0e13          	addi	t3,t3,-996 # 2000 <begin_signature>
 3ec:	05ee2623          	sw	t5,76(t3)
 3f0:	4bdf1663          	bne	t5,t4,89c <fail>

000003f4 <test_20>:
 3f4:	818180b7          	lui	ra,0x81818
 3f8:	18108093          	addi	ra,ra,385 # 81818181 <_end+0x81815f7d>
 3fc:	fce00113          	li	sp,-50
 400:	4020df33          	sra	t5,ra,sp
 404:	fffe0eb7          	lui	t4,0xfffe0
 408:	606e8e93          	addi	t4,t4,1542 # fffe0606 <_end+0xfffde402>
 40c:	01400193          	li	gp,20
 410:	00002e17          	auipc	t3,0x2
 414:	bf0e0e13          	addi	t3,t3,-1040 # 2000 <begin_signature>
 418:	05ee2823          	sw	t5,80(t3)
 41c:	49df1063          	bne	t5,t4,89c <fail>

00000420 <test_21>:
 420:	818180b7          	lui	ra,0x81818
 424:	18108093          	addi	ra,ra,385 # 81818181 <_end+0x81815f7d>
 428:	fff00113          	li	sp,-1
 42c:	4020df33          	sra	t5,ra,sp
 430:	fff00e93          	li	t4,-1
 434:	01500193          	li	gp,21
 438:	00002e17          	auipc	t3,0x2
 43c:	bc8e0e13          	addi	t3,t3,-1080 # 2000 <begin_signature>
 440:	05ee2a23          	sw	t5,84(t3)
 444:	45df1c63          	bne	t5,t4,89c <fail>

00000448 <test_22>:
 448:	800000b7          	lui	ra,0x80000
 44c:	00700113          	li	sp,7
 450:	4020d0b3          	sra	ra,ra,sp
 454:	ff000eb7          	lui	t4,0xff000
 458:	01600193          	li	gp,22
 45c:	00002e17          	auipc	t3,0x2
 460:	ba4e0e13          	addi	t3,t3,-1116 # 2000 <begin_signature>
 464:	041e2c23          	sw	ra,88(t3)
 468:	43d09a63          	bne	ra,t4,89c <fail>

0000046c <test_23>:
 46c:	800000b7          	lui	ra,0x80000
 470:	00e00113          	li	sp,14
 474:	4020d133          	sra	sp,ra,sp
 478:	fffe0eb7          	lui	t4,0xfffe0
 47c:	01700193          	li	gp,23
 480:	00002e17          	auipc	t3,0x2
 484:	b80e0e13          	addi	t3,t3,-1152 # 2000 <begin_signature>
 488:	042e2e23          	sw	sp,92(t3)
 48c:	41d11863          	bne	sp,t4,89c <fail>

00000490 <test_24>:
 490:	00700093          	li	ra,7
 494:	4010d0b3          	sra	ra,ra,ra
 498:	00000e93          	li	t4,0
 49c:	01800193          	li	gp,24
 4a0:	00002e17          	auipc	t3,0x2
 4a4:	b60e0e13          	addi	t3,t3,-1184 # 2000 <begin_signature>
 4a8:	061e2023          	sw	ra,96(t3)
 4ac:	3fd09863          	bne	ra,t4,89c <fail>

000004b0 <test_25>:
 4b0:	00000213          	li	tp,0
 4b4:	800000b7          	lui	ra,0x80000
 4b8:	00700113          	li	sp,7
 4bc:	4020df33          	sra	t5,ra,sp
 4c0:	000f0313          	mv	t1,t5
 4c4:	00120213          	addi	tp,tp,1 # 1 <_start+0x1>
 4c8:	00200293          	li	t0,2
 4cc:	fe5214e3          	bne	tp,t0,4b4 <test_25+0x4>
 4d0:	ff000eb7          	lui	t4,0xff000
 4d4:	01900193          	li	gp,25
 4d8:	00002e17          	auipc	t3,0x2
 4dc:	b28e0e13          	addi	t3,t3,-1240 # 2000 <begin_signature>
 4e0:	066e2223          	sw	t1,100(t3)
 4e4:	3bd31c63          	bne	t1,t4,89c <fail>

000004e8 <test_26>:
 4e8:	00000213          	li	tp,0
 4ec:	800000b7          	lui	ra,0x80000
 4f0:	00e00113          	li	sp,14
 4f4:	4020df33          	sra	t5,ra,sp
 4f8:	00000013          	nop
 4fc:	000f0313          	mv	t1,t5
 500:	00120213          	addi	tp,tp,1 # 1 <_start+0x1>
 504:	00200293          	li	t0,2
 508:	fe5212e3          	bne	tp,t0,4ec <test_26+0x4>
 50c:	fffe0eb7          	lui	t4,0xfffe0
 510:	01a00193          	li	gp,26
 514:	00002e17          	auipc	t3,0x2
 518:	aece0e13          	addi	t3,t3,-1300 # 2000 <begin_signature>
 51c:	066e2423          	sw	t1,104(t3)
 520:	37d31e63          	bne	t1,t4,89c <fail>

00000524 <test_27>:
 524:	00000213          	li	tp,0
 528:	800000b7          	lui	ra,0x80000
 52c:	01f00113          	li	sp,31
 530:	4020df33          	sra	t5,ra,sp
 534:	00000013          	nop
 538:	00000013          	nop
 53c:	000f0313          	mv	t1,t5
 540:	00120213          	addi	tp,tp,1 # 1 <_start+0x1>
 544:	00200293          	li	t0,2
 548:	fe5210e3          	bne	tp,t0,528 <test_27+0x4>
 54c:	fff00e93          	li	t4,-1
 550:	01b00193          	li	gp,27
 554:	00002e17          	auipc	t3,0x2
 558:	aace0e13          	addi	t3,t3,-1364 # 2000 <begin_signature>
 55c:	066e2623          	sw	t1,108(t3)
 560:	33d31e63          	bne	t1,t4,89c <fail>

00000564 <test_28>:
 564:	00000213          	li	tp,0
 568:	800000b7          	lui	ra,0x80000
 56c:	00700113          	li	sp,7
 570:	4020df33          	sra	t5,ra,sp
 574:	00120213          	addi	tp,tp,1 # 1 <_start+0x1>
 578:	00200293          	li	t0,2
 57c:	fe5216e3          	bne	tp,t0,568 <test_28+0x4>
 580:	ff000eb7          	lui	t4,0xff000
 584:	01c00193          	li	gp,28
 588:	00002e17          	auipc	t3,0x2
 58c:	a78e0e13          	addi	t3,t3,-1416 # 2000 <begin_signature>
 590:	07ee2823          	sw	t5,112(t3)
 594:	31df1463          	bne	t5,t4,89c <fail>

00000598 <test_29>:
 598:	00000213          	li	tp,0
 59c:	800000b7          	lui	ra,0x80000
 5a0:	00e00113          	li	sp,14
 5a4:	00000013          	nop
 5a8:	4020df33          	sra	t5,ra,sp
 5ac:	00120213          	addi	tp,tp,1 # 1 <_start+0x1>
 5b0:	00200293          	li	t0,2
 5b4:	fe5214e3          	bne	tp,t0,59c <test_29+0x4>
 5b8:	fffe0eb7          	lui	t4,0xfffe0
 5bc:	01d00193          	li	gp,29
 5c0:	00002e17          	auipc	t3,0x2
 5c4:	a40e0e13          	addi	t3,t3,-1472 # 2000 <begin_signature>
 5c8:	07ee2a23          	sw	t5,116(t3)
 5cc:	2ddf1863          	bne	t5,t4,89c <fail>

000005d0 <test_30>:
 5d0:	00000213          	li	tp,0
 5d4:	800000b7          	lui	ra,0x80000
 5d8:	01f00113          	li	sp,31
 5dc:	00000013          	nop
 5e0:	00000013          	nop
 5e4:	4020df33          	sra	t5,ra,sp
 5e8:	00120213          	addi	tp,tp,1 # 1 <_start+0x1>
 5ec:	00200293          	li	t0,2
 5f0:	fe5212e3          	bne	tp,t0,5d4 <test_30+0x4>
 5f4:	fff00e93          	li	t4,-1
 5f8:	01e00193          	li	gp,30
 5fc:	00002e17          	auipc	t3,0x2
 600:	a04e0e13          	addi	t3,t3,-1532 # 2000 <begin_signature>
 604:	07ee2c23          	sw	t5,120(t3)
 608:	29df1a63          	bne	t5,t4,89c <fail>

0000060c <test_31>:
 60c:	00000213          	li	tp,0
 610:	800000b7          	lui	ra,0x80000
 614:	00000013          	nop
 618:	00700113          	li	sp,7
 61c:	4020df33          	sra	t5,ra,sp
 620:	00120213          	addi	tp,tp,1 # 1 <_start+0x1>
 624:	00200293          	li	t0,2
 628:	fe5214e3          	bne	tp,t0,610 <test_31+0x4>
 62c:	ff000eb7          	lui	t4,0xff000
 630:	01f00193          	li	gp,31
 634:	00002e17          	auipc	t3,0x2
 638:	9cce0e13          	addi	t3,t3,-1588 # 2000 <begin_signature>
 63c:	07ee2e23          	sw	t5,124(t3)
 640:	25df1e63          	bne	t5,t4,89c <fail>

00000644 <test_32>:
 644:	00000213          	li	tp,0
 648:	800000b7          	lui	ra,0x80000
 64c:	00000013          	nop
 650:	00e00113          	li	sp,14
 654:	00000013          	nop
 658:	4020df33          	sra	t5,ra,sp
 65c:	00120213          	addi	tp,tp,1 # 1 <_start+0x1>
 660:	00200293          	li	t0,2
 664:	fe5212e3          	bne	tp,t0,648 <test_32+0x4>
 668:	fffe0eb7          	lui	t4,0xfffe0
 66c:	02000193          	li	gp,32
 670:	00002e17          	auipc	t3,0x2
 674:	990e0e13          	addi	t3,t3,-1648 # 2000 <begin_signature>
 678:	09ee2023          	sw	t5,128(t3)
 67c:	23df1063          	bne	t5,t4,89c <fail>

00000680 <test_33>:
 680:	00000213          	li	tp,0
 684:	800000b7          	lui	ra,0x80000
 688:	00000013          	nop
 68c:	00000013          	nop
 690:	01f00113          	li	sp,31
 694:	4020df33          	sra	t5,ra,sp
 698:	00120213          	addi	tp,tp,1 # 1 <_start+0x1>
 69c:	00200293          	li	t0,2
 6a0:	fe5212e3          	bne	tp,t0,684 <test_33+0x4>
 6a4:	fff00e93          	li	t4,-1
 6a8:	02100193          	li	gp,33
 6ac:	00002e17          	auipc	t3,0x2
 6b0:	954e0e13          	addi	t3,t3,-1708 # 2000 <begin_signature>
 6b4:	09ee2223          	sw	t5,132(t3)
 6b8:	1fdf1263          	bne	t5,t4,89c <fail>

000006bc <test_34>:
 6bc:	00000213          	li	tp,0
 6c0:	00700113          	li	sp,7
 6c4:	800000b7          	lui	ra,0x80000
 6c8:	4020df33          	sra	t5,ra,sp
 6cc:	00120213          	addi	tp,tp,1 # 1 <_start+0x1>
 6d0:	00200293          	li	t0,2
 6d4:	fe5216e3          	bne	tp,t0,6c0 <test_34+0x4>
 6d8:	ff000eb7          	lui	t4,0xff000
 6dc:	02200193          	li	gp,34
 6e0:	00002e17          	auipc	t3,0x2
 6e4:	920e0e13          	addi	t3,t3,-1760 # 2000 <begin_signature>
 6e8:	09ee2423          	sw	t5,136(t3)
 6ec:	1bdf1863          	bne	t5,t4,89c <fail>

000006f0 <test_35>:
 6f0:	00000213          	li	tp,0
 6f4:	00e00113          	li	sp,14
 6f8:	800000b7          	lui	ra,0x80000
 6fc:	00000013          	nop
 700:	4020df33          	sra	t5,ra,sp
 704:	00120213          	addi	tp,tp,1 # 1 <_start+0x1>
 708:	00200293          	li	t0,2
 70c:	fe5214e3          	bne	tp,t0,6f4 <test_35+0x4>
 710:	fffe0eb7          	lui	t4,0xfffe0
 714:	02300193          	li	gp,35
 718:	00002e17          	auipc	t3,0x2
 71c:	8e8e0e13          	addi	t3,t3,-1816 # 2000 <begin_signature>
 720:	09ee2623          	sw	t5,140(t3)
 724:	17df1c63          	bne	t5,t4,89c <fail>

00000728 <test_36>:
 728:	00000213          	li	tp,0
 72c:	01f00113          	li	sp,31
 730:	800000b7          	lui	ra,0x80000
 734:	00000013          	nop
 738:	00000013          	nop
 73c:	4020df33          	sra	t5,ra,sp
 740:	00120213          	addi	tp,tp,1 # 1 <_start+0x1>
 744:	00200293          	li	t0,2
 748:	fe5212e3          	bne	tp,t0,72c <test_36+0x4>
 74c:	fff00e93          	li	t4,-1
 750:	02400193          	li	gp,36
 754:	00002e17          	auipc	t3,0x2
 758:	8ace0e13          	addi	t3,t3,-1876 # 2000 <begin_signature>
 75c:	09ee2823          	sw	t5,144(t3)
 760:	13df1e63          	bne	t5,t4,89c <fail>

00000764 <test_37>:
 764:	00000213          	li	tp,0
 768:	00700113          	li	sp,7
 76c:	00000013          	nop
 770:	800000b7          	lui	ra,0x80000
 774:	4020df33          	sra	t5,ra,sp
 778:	00120213          	addi	tp,tp,1 # 1 <_start+0x1>
 77c:	00200293          	li	t0,2
 780:	fe5214e3          	bne	tp,t0,768 <test_37+0x4>
 784:	ff000eb7          	lui	t4,0xff000
 788:	02500193          	li	gp,37
 78c:	00002e17          	auipc	t3,0x2
 790:	874e0e13          	addi	t3,t3,-1932 # 2000 <begin_signature>
 794:	09ee2a23          	sw	t5,148(t3)
 798:	11df1263          	bne	t5,t4,89c <fail>

0000079c <test_38>:
 79c:	00000213          	li	tp,0
 7a0:	00e00113          	li	sp,14
 7a4:	00000013          	nop
 7a8:	800000b7          	lui	ra,0x80000
 7ac:	00000013          	nop
 7b0:	4020df33          	sra	t5,ra,sp
 7b4:	00120213          	addi	tp,tp,1 # 1 <_start+0x1>
 7b8:	00200293          	li	t0,2
 7bc:	fe5212e3          	bne	tp,t0,7a0 <test_38+0x4>
 7c0:	fffe0eb7          	lui	t4,0xfffe0
 7c4:	02600193          	li	gp,38
 7c8:	00002e17          	auipc	t3,0x2
 7cc:	838e0e13          	addi	t3,t3,-1992 # 2000 <begin_signature>
 7d0:	09ee2c23          	sw	t5,152(t3)
 7d4:	0ddf1463          	bne	t5,t4,89c <fail>

000007d8 <test_39>:
 7d8:	00000213          	li	tp,0
 7dc:	01f00113          	li	sp,31
 7e0:	00000013          	nop
 7e4:	00000013          	nop
 7e8:	800000b7          	lui	ra,0x80000
 7ec:	4020df33          	sra	t5,ra,sp
 7f0:	00120213          	addi	tp,tp,1 # 1 <_start+0x1>
 7f4:	00200293          	li	t0,2
 7f8:	fe5212e3          	bne	tp,t0,7dc <test_39+0x4>
 7fc:	fff00e93          	li	t4,-1
 800:	02700193          	li	gp,39
 804:	00001e17          	auipc	t3,0x1
 808:	7fce0e13          	addi	t3,t3,2044 # 2000 <begin_signature>
 80c:	09ee2e23          	sw	t5,156(t3)
 810:	09df1663          	bne	t5,t4,89c <fail>

00000814 <test_40>:
 814:	00f00093          	li	ra,15
 818:	40105133          	sra	sp,zero,ra
 81c:	00000e93          	li	t4,0
 820:	02800193          	li	gp,40
 824:	00001e17          	auipc	t3,0x1
 828:	7dce0e13          	addi	t3,t3,2012 # 2000 <begin_signature>
 82c:	0a2e2023          	sw	sp,160(t3)
 830:	07d11663          	bne	sp,t4,89c <fail>

00000834 <test_41>:
 834:	02000093          	li	ra,32
 838:	4000d133          	sra	sp,ra,zero
 83c:	02000e93          	li	t4,32
 840:	02900193          	li	gp,41
 844:	00001e17          	auipc	t3,0x1
 848:	7bce0e13          	addi	t3,t3,1980 # 2000 <begin_signature>
 84c:	0a2e2223          	sw	sp,164(t3)
 850:	05d11663          	bne	sp,t4,89c <fail>

00000854 <test_42>:
 854:	400050b3          	sra	ra,zero,zero
 858:	00000e93          	li	t4,0
 85c:	02a00193          	li	gp,42
 860:	00001e17          	auipc	t3,0x1
 864:	7a0e0e13          	addi	t3,t3,1952 # 2000 <begin_signature>
 868:	0a1e2423          	sw	ra,168(t3)
 86c:	03d09863          	bne	ra,t4,89c <fail>

00000870 <test_43>:
 870:	40000093          	li	ra,1024
 874:	00001137          	lui	sp,0x1
 878:	80010113          	addi	sp,sp,-2048 # 800 <test_39+0x28>
 87c:	4020d033          	sra	zero,ra,sp
 880:	00000e93          	li	t4,0
 884:	02b00193          	li	gp,43
 888:	00001e17          	auipc	t3,0x1
 88c:	778e0e13          	addi	t3,t3,1912 # 2000 <begin_signature>
 890:	0a0e2623          	sw	zero,172(t3)
 894:	01d01463          	bne	zero,t4,89c <fail>
 898:	00301e63          	bne	zero,gp,8b4 <pass>

0000089c <fail>:
 89c:	0ff0000f          	fence
 8a0:	00100193          	li	gp,1
 8a4:	00001e17          	auipc	t3,0x1
 8a8:	75ce0e13          	addi	t3,t3,1884 # 2000 <begin_signature>
 8ac:	003e2023          	sw	gp,0(t3)
 8b0:	00000073          	ecall

000008b4 <pass>:
 8b4:	0ff0000f          	fence
 8b8:	00100193          	li	gp,1
 8bc:	00001e17          	auipc	t3,0x1
 8c0:	744e0e13          	addi	t3,t3,1860 # 2000 <begin_signature>
 8c4:	003e2023          	sw	gp,0(t3)
 8c8:	00000073          	ecall

000008cc <end_testcode>:
 8cc:	c0001073          	unimp
	...

Disassembly of section .tohost:

00001000 <tohost>:
	...

00001100 <fromhost>:
	...
